
EEE3099S.elf:     file format elf32-littlearm

Sections:
Idx Name          Size      VMA       LMA       File off  Algn
  0 .isr_vector   000000c0  08000000  08000000  00010000  2**0
                  CONTENTS, ALLOC, LOAD, READONLY, DATA
  1 .text         0000147c  080000c0  080000c0  000100c0  2**2
                  CONTENTS, ALLOC, LOAD, READONLY, CODE
  2 .rodata       00000080  0800153c  0800153c  0001153c  2**2
                  CONTENTS, ALLOC, LOAD, READONLY, DATA
  3 .init_array   00000004  080015bc  080015bc  000115bc  2**2
                  CONTENTS, ALLOC, LOAD, DATA
  4 .fini_array   00000004  080015c0  080015c0  000115c0  2**2
                  CONTENTS, ALLOC, LOAD, DATA
  5 .data         00000000  20000000  20000000  000115c4  2**0
                  CONTENTS, ALLOC, LOAD, DATA
  6 .bss          00000028  20000000  080015c4  00020000  2**2
                  ALLOC
  7 ._user_heap_stack 00000080  20000028  080015c4  00020028  2**0
                  ALLOC
  8 .ARM.attributes 00000028  00000000  00000000  000115c4  2**0
                  CONTENTS, READONLY
  9 .debug_info   00000b2b  00000000  00000000  000115ec  2**0
                  CONTENTS, READONLY, DEBUGGING
 10 .debug_abbrev 000002bc  00000000  00000000  00012117  2**0
                  CONTENTS, READONLY, DEBUGGING
 11 .debug_aranges 000000d8  00000000  00000000  000123d8  2**3
                  CONTENTS, READONLY, DEBUGGING
 12 .debug_ranges 000000b0  00000000  00000000  000124b0  2**3
                  CONTENTS, READONLY, DEBUGGING
 13 .debug_line   0000056a  00000000  00000000  00012560  2**0
                  CONTENTS, READONLY, DEBUGGING
 14 .debug_str    000005f2  00000000  00000000  00012aca  2**0
                  CONTENTS, READONLY, DEBUGGING
 15 .comment      0000007c  00000000  00000000  000130bc  2**0
                  CONTENTS, READONLY
 16 .debug_frame  0000032c  00000000  00000000  00013138  2**2
                  CONTENTS, READONLY, DEBUGGING
 17 .stabstr      0000003f  00000000  00000000  00013464  2**0
                  CONTENTS, READONLY, DEBUGGING

Disassembly of section .text:

080000c0 <__do_global_dtors_aux>:
 80000c0:	b510      	push	{r4, lr}
 80000c2:	4c06      	ldr	r4, [pc, #24]	; (80000dc <__do_global_dtors_aux+0x1c>)
 80000c4:	7823      	ldrb	r3, [r4, #0]
 80000c6:	2b00      	cmp	r3, #0
 80000c8:	d107      	bne.n	80000da <__do_global_dtors_aux+0x1a>
 80000ca:	4b05      	ldr	r3, [pc, #20]	; (80000e0 <__do_global_dtors_aux+0x20>)
 80000cc:	2b00      	cmp	r3, #0
 80000ce:	d002      	beq.n	80000d6 <__do_global_dtors_aux+0x16>
 80000d0:	4804      	ldr	r0, [pc, #16]	; (80000e4 <__do_global_dtors_aux+0x24>)
 80000d2:	e000      	b.n	80000d6 <__do_global_dtors_aux+0x16>
 80000d4:	bf00      	nop
 80000d6:	2301      	movs	r3, #1
 80000d8:	7023      	strb	r3, [r4, #0]
 80000da:	bd10      	pop	{r4, pc}
 80000dc:	20000000 	.word	0x20000000
 80000e0:	00000000 	.word	0x00000000
 80000e4:	08001524 	.word	0x08001524

080000e8 <frame_dummy>:
 80000e8:	4b04      	ldr	r3, [pc, #16]	; (80000fc <frame_dummy+0x14>)
 80000ea:	b510      	push	{r4, lr}
 80000ec:	2b00      	cmp	r3, #0
 80000ee:	d003      	beq.n	80000f8 <frame_dummy+0x10>
 80000f0:	4903      	ldr	r1, [pc, #12]	; (8000100 <frame_dummy+0x18>)
 80000f2:	4804      	ldr	r0, [pc, #16]	; (8000104 <frame_dummy+0x1c>)
 80000f4:	e000      	b.n	80000f8 <frame_dummy+0x10>
 80000f6:	bf00      	nop
 80000f8:	bd10      	pop	{r4, pc}
 80000fa:	46c0      	nop			; (mov r8, r8)
 80000fc:	00000000 	.word	0x00000000
 8000100:	20000004 	.word	0x20000004
 8000104:	08001524 	.word	0x08001524

08000108 <__udivsi3>:
 8000108:	2200      	movs	r2, #0
 800010a:	0843      	lsrs	r3, r0, #1
 800010c:	428b      	cmp	r3, r1
 800010e:	d374      	bcc.n	80001fa <__udivsi3+0xf2>
 8000110:	0903      	lsrs	r3, r0, #4
 8000112:	428b      	cmp	r3, r1
 8000114:	d35f      	bcc.n	80001d6 <__udivsi3+0xce>
 8000116:	0a03      	lsrs	r3, r0, #8
 8000118:	428b      	cmp	r3, r1
 800011a:	d344      	bcc.n	80001a6 <__udivsi3+0x9e>
 800011c:	0b03      	lsrs	r3, r0, #12
 800011e:	428b      	cmp	r3, r1
 8000120:	d328      	bcc.n	8000174 <__udivsi3+0x6c>
 8000122:	0c03      	lsrs	r3, r0, #16
 8000124:	428b      	cmp	r3, r1
 8000126:	d30d      	bcc.n	8000144 <__udivsi3+0x3c>
 8000128:	22ff      	movs	r2, #255	; 0xff
 800012a:	0209      	lsls	r1, r1, #8
 800012c:	ba12      	rev	r2, r2
 800012e:	0c03      	lsrs	r3, r0, #16
 8000130:	428b      	cmp	r3, r1
 8000132:	d302      	bcc.n	800013a <__udivsi3+0x32>
 8000134:	1212      	asrs	r2, r2, #8
 8000136:	0209      	lsls	r1, r1, #8
 8000138:	d065      	beq.n	8000206 <__udivsi3+0xfe>
 800013a:	0b03      	lsrs	r3, r0, #12
 800013c:	428b      	cmp	r3, r1
 800013e:	d319      	bcc.n	8000174 <__udivsi3+0x6c>
 8000140:	e000      	b.n	8000144 <__udivsi3+0x3c>
 8000142:	0a09      	lsrs	r1, r1, #8
 8000144:	0bc3      	lsrs	r3, r0, #15
 8000146:	428b      	cmp	r3, r1
 8000148:	d301      	bcc.n	800014e <__udivsi3+0x46>
 800014a:	03cb      	lsls	r3, r1, #15
 800014c:	1ac0      	subs	r0, r0, r3
 800014e:	4152      	adcs	r2, r2
 8000150:	0b83      	lsrs	r3, r0, #14
 8000152:	428b      	cmp	r3, r1
 8000154:	d301      	bcc.n	800015a <__udivsi3+0x52>
 8000156:	038b      	lsls	r3, r1, #14
 8000158:	1ac0      	subs	r0, r0, r3
 800015a:	4152      	adcs	r2, r2
 800015c:	0b43      	lsrs	r3, r0, #13
 800015e:	428b      	cmp	r3, r1
 8000160:	d301      	bcc.n	8000166 <__udivsi3+0x5e>
 8000162:	034b      	lsls	r3, r1, #13
 8000164:	1ac0      	subs	r0, r0, r3
 8000166:	4152      	adcs	r2, r2
 8000168:	0b03      	lsrs	r3, r0, #12
 800016a:	428b      	cmp	r3, r1
 800016c:	d301      	bcc.n	8000172 <__udivsi3+0x6a>
 800016e:	030b      	lsls	r3, r1, #12
 8000170:	1ac0      	subs	r0, r0, r3
 8000172:	4152      	adcs	r2, r2
 8000174:	0ac3      	lsrs	r3, r0, #11
 8000176:	428b      	cmp	r3, r1
 8000178:	d301      	bcc.n	800017e <__udivsi3+0x76>
 800017a:	02cb      	lsls	r3, r1, #11
 800017c:	1ac0      	subs	r0, r0, r3
 800017e:	4152      	adcs	r2, r2
 8000180:	0a83      	lsrs	r3, r0, #10
 8000182:	428b      	cmp	r3, r1
 8000184:	d301      	bcc.n	800018a <__udivsi3+0x82>
 8000186:	028b      	lsls	r3, r1, #10
 8000188:	1ac0      	subs	r0, r0, r3
 800018a:	4152      	adcs	r2, r2
 800018c:	0a43      	lsrs	r3, r0, #9
 800018e:	428b      	cmp	r3, r1
 8000190:	d301      	bcc.n	8000196 <__udivsi3+0x8e>
 8000192:	024b      	lsls	r3, r1, #9
 8000194:	1ac0      	subs	r0, r0, r3
 8000196:	4152      	adcs	r2, r2
 8000198:	0a03      	lsrs	r3, r0, #8
 800019a:	428b      	cmp	r3, r1
 800019c:	d301      	bcc.n	80001a2 <__udivsi3+0x9a>
 800019e:	020b      	lsls	r3, r1, #8
 80001a0:	1ac0      	subs	r0, r0, r3
 80001a2:	4152      	adcs	r2, r2
 80001a4:	d2cd      	bcs.n	8000142 <__udivsi3+0x3a>
 80001a6:	09c3      	lsrs	r3, r0, #7
 80001a8:	428b      	cmp	r3, r1
 80001aa:	d301      	bcc.n	80001b0 <__udivsi3+0xa8>
 80001ac:	01cb      	lsls	r3, r1, #7
 80001ae:	1ac0      	subs	r0, r0, r3
 80001b0:	4152      	adcs	r2, r2
 80001b2:	0983      	lsrs	r3, r0, #6
 80001b4:	428b      	cmp	r3, r1
 80001b6:	d301      	bcc.n	80001bc <__udivsi3+0xb4>
 80001b8:	018b      	lsls	r3, r1, #6
 80001ba:	1ac0      	subs	r0, r0, r3
 80001bc:	4152      	adcs	r2, r2
 80001be:	0943      	lsrs	r3, r0, #5
 80001c0:	428b      	cmp	r3, r1
 80001c2:	d301      	bcc.n	80001c8 <__udivsi3+0xc0>
 80001c4:	014b      	lsls	r3, r1, #5
 80001c6:	1ac0      	subs	r0, r0, r3
 80001c8:	4152      	adcs	r2, r2
 80001ca:	0903      	lsrs	r3, r0, #4
 80001cc:	428b      	cmp	r3, r1
 80001ce:	d301      	bcc.n	80001d4 <__udivsi3+0xcc>
 80001d0:	010b      	lsls	r3, r1, #4
 80001d2:	1ac0      	subs	r0, r0, r3
 80001d4:	4152      	adcs	r2, r2
 80001d6:	08c3      	lsrs	r3, r0, #3
 80001d8:	428b      	cmp	r3, r1
 80001da:	d301      	bcc.n	80001e0 <__udivsi3+0xd8>
 80001dc:	00cb      	lsls	r3, r1, #3
 80001de:	1ac0      	subs	r0, r0, r3
 80001e0:	4152      	adcs	r2, r2
 80001e2:	0883      	lsrs	r3, r0, #2
 80001e4:	428b      	cmp	r3, r1
 80001e6:	d301      	bcc.n	80001ec <__udivsi3+0xe4>
 80001e8:	008b      	lsls	r3, r1, #2
 80001ea:	1ac0      	subs	r0, r0, r3
 80001ec:	4152      	adcs	r2, r2
 80001ee:	0843      	lsrs	r3, r0, #1
 80001f0:	428b      	cmp	r3, r1
 80001f2:	d301      	bcc.n	80001f8 <__udivsi3+0xf0>
 80001f4:	004b      	lsls	r3, r1, #1
 80001f6:	1ac0      	subs	r0, r0, r3
 80001f8:	4152      	adcs	r2, r2
 80001fa:	1a41      	subs	r1, r0, r1
 80001fc:	d200      	bcs.n	8000200 <__udivsi3+0xf8>
 80001fe:	4601      	mov	r1, r0
 8000200:	4152      	adcs	r2, r2
 8000202:	4610      	mov	r0, r2
 8000204:	4770      	bx	lr
 8000206:	e7ff      	b.n	8000208 <__udivsi3+0x100>
 8000208:	b501      	push	{r0, lr}
 800020a:	2000      	movs	r0, #0
 800020c:	f000 f806 	bl	800021c <__aeabi_idiv0>
 8000210:	bd02      	pop	{r1, pc}
 8000212:	46c0      	nop			; (mov r8, r8)

08000214 <__aeabi_uidivmod>:
 8000214:	2900      	cmp	r1, #0
 8000216:	d0f7      	beq.n	8000208 <__udivsi3+0x100>
 8000218:	e776      	b.n	8000108 <__udivsi3>
 800021a:	4770      	bx	lr

0800021c <__aeabi_idiv0>:
 800021c:	4770      	bx	lr
 800021e:	46c0      	nop			; (mov r8, r8)

08000220 <__aeabi_f2iz>:
 8000220:	0241      	lsls	r1, r0, #9
 8000222:	0043      	lsls	r3, r0, #1
 8000224:	0fc2      	lsrs	r2, r0, #31
 8000226:	0a49      	lsrs	r1, r1, #9
 8000228:	0e1b      	lsrs	r3, r3, #24
 800022a:	2000      	movs	r0, #0
 800022c:	2b7e      	cmp	r3, #126	; 0x7e
 800022e:	dd0d      	ble.n	800024c <__aeabi_f2iz+0x2c>
 8000230:	2b9d      	cmp	r3, #157	; 0x9d
 8000232:	dc0c      	bgt.n	800024e <__aeabi_f2iz+0x2e>
 8000234:	2080      	movs	r0, #128	; 0x80
 8000236:	0400      	lsls	r0, r0, #16
 8000238:	4301      	orrs	r1, r0
 800023a:	2b95      	cmp	r3, #149	; 0x95
 800023c:	dc0a      	bgt.n	8000254 <__aeabi_f2iz+0x34>
 800023e:	2096      	movs	r0, #150	; 0x96
 8000240:	1ac3      	subs	r3, r0, r3
 8000242:	40d9      	lsrs	r1, r3
 8000244:	4248      	negs	r0, r1
 8000246:	2a00      	cmp	r2, #0
 8000248:	d100      	bne.n	800024c <__aeabi_f2iz+0x2c>
 800024a:	0008      	movs	r0, r1
 800024c:	4770      	bx	lr
 800024e:	4b03      	ldr	r3, [pc, #12]	; (800025c <__aeabi_f2iz+0x3c>)
 8000250:	18d0      	adds	r0, r2, r3
 8000252:	e7fb      	b.n	800024c <__aeabi_f2iz+0x2c>
 8000254:	3b96      	subs	r3, #150	; 0x96
 8000256:	4099      	lsls	r1, r3
 8000258:	e7f4      	b.n	8000244 <__aeabi_f2iz+0x24>
 800025a:	46c0      	nop			; (mov r8, r8)
 800025c:	7fffffff 	.word	0x7fffffff

08000260 <__aeabi_ddiv>:
 8000260:	b5f0      	push	{r4, r5, r6, r7, lr}
 8000262:	4657      	mov	r7, sl
 8000264:	4645      	mov	r5, r8
 8000266:	46de      	mov	lr, fp
 8000268:	464e      	mov	r6, r9
 800026a:	b5e0      	push	{r5, r6, r7, lr}
 800026c:	004c      	lsls	r4, r1, #1
 800026e:	030e      	lsls	r6, r1, #12
 8000270:	b087      	sub	sp, #28
 8000272:	4683      	mov	fp, r0
 8000274:	4692      	mov	sl, r2
 8000276:	001d      	movs	r5, r3
 8000278:	4680      	mov	r8, r0
 800027a:	0b36      	lsrs	r6, r6, #12
 800027c:	0d64      	lsrs	r4, r4, #21
 800027e:	0fcf      	lsrs	r7, r1, #31
 8000280:	2c00      	cmp	r4, #0
 8000282:	d04f      	beq.n	8000324 <__aeabi_ddiv+0xc4>
 8000284:	4b6f      	ldr	r3, [pc, #444]	; (8000444 <__aeabi_ddiv+0x1e4>)
 8000286:	429c      	cmp	r4, r3
 8000288:	d035      	beq.n	80002f6 <__aeabi_ddiv+0x96>
 800028a:	2380      	movs	r3, #128	; 0x80
 800028c:	0f42      	lsrs	r2, r0, #29
 800028e:	041b      	lsls	r3, r3, #16
 8000290:	00f6      	lsls	r6, r6, #3
 8000292:	4313      	orrs	r3, r2
 8000294:	4333      	orrs	r3, r6
 8000296:	4699      	mov	r9, r3
 8000298:	00c3      	lsls	r3, r0, #3
 800029a:	4698      	mov	r8, r3
 800029c:	4b6a      	ldr	r3, [pc, #424]	; (8000448 <__aeabi_ddiv+0x1e8>)
 800029e:	2600      	movs	r6, #0
 80002a0:	469c      	mov	ip, r3
 80002a2:	2300      	movs	r3, #0
 80002a4:	4464      	add	r4, ip
 80002a6:	9303      	str	r3, [sp, #12]
 80002a8:	032b      	lsls	r3, r5, #12
 80002aa:	0b1b      	lsrs	r3, r3, #12
 80002ac:	469b      	mov	fp, r3
 80002ae:	006b      	lsls	r3, r5, #1
 80002b0:	0fed      	lsrs	r5, r5, #31
 80002b2:	4650      	mov	r0, sl
 80002b4:	0d5b      	lsrs	r3, r3, #21
 80002b6:	9501      	str	r5, [sp, #4]
 80002b8:	d05e      	beq.n	8000378 <__aeabi_ddiv+0x118>
 80002ba:	4a62      	ldr	r2, [pc, #392]	; (8000444 <__aeabi_ddiv+0x1e4>)
 80002bc:	4293      	cmp	r3, r2
 80002be:	d053      	beq.n	8000368 <__aeabi_ddiv+0x108>
 80002c0:	465a      	mov	r2, fp
 80002c2:	00d1      	lsls	r1, r2, #3
 80002c4:	2280      	movs	r2, #128	; 0x80
 80002c6:	0f40      	lsrs	r0, r0, #29
 80002c8:	0412      	lsls	r2, r2, #16
 80002ca:	4302      	orrs	r2, r0
 80002cc:	430a      	orrs	r2, r1
 80002ce:	4693      	mov	fp, r2
 80002d0:	4652      	mov	r2, sl
 80002d2:	00d1      	lsls	r1, r2, #3
 80002d4:	4a5c      	ldr	r2, [pc, #368]	; (8000448 <__aeabi_ddiv+0x1e8>)
 80002d6:	4694      	mov	ip, r2
 80002d8:	2200      	movs	r2, #0
 80002da:	4463      	add	r3, ip
 80002dc:	0038      	movs	r0, r7
 80002de:	4068      	eors	r0, r5
 80002e0:	4684      	mov	ip, r0
 80002e2:	9002      	str	r0, [sp, #8]
 80002e4:	1ae4      	subs	r4, r4, r3
 80002e6:	4316      	orrs	r6, r2
 80002e8:	2e0f      	cmp	r6, #15
 80002ea:	d900      	bls.n	80002ee <__aeabi_ddiv+0x8e>
 80002ec:	e0b4      	b.n	8000458 <__aeabi_ddiv+0x1f8>
 80002ee:	4b57      	ldr	r3, [pc, #348]	; (800044c <__aeabi_ddiv+0x1ec>)
 80002f0:	00b6      	lsls	r6, r6, #2
 80002f2:	599b      	ldr	r3, [r3, r6]
 80002f4:	469f      	mov	pc, r3
 80002f6:	0003      	movs	r3, r0
 80002f8:	4333      	orrs	r3, r6
 80002fa:	4699      	mov	r9, r3
 80002fc:	d16c      	bne.n	80003d8 <__aeabi_ddiv+0x178>
 80002fe:	2300      	movs	r3, #0
 8000300:	4698      	mov	r8, r3
 8000302:	3302      	adds	r3, #2
 8000304:	2608      	movs	r6, #8
 8000306:	9303      	str	r3, [sp, #12]
 8000308:	e7ce      	b.n	80002a8 <__aeabi_ddiv+0x48>
 800030a:	46cb      	mov	fp, r9
 800030c:	4641      	mov	r1, r8
 800030e:	9a03      	ldr	r2, [sp, #12]
 8000310:	9701      	str	r7, [sp, #4]
 8000312:	2a02      	cmp	r2, #2
 8000314:	d165      	bne.n	80003e2 <__aeabi_ddiv+0x182>
 8000316:	9b01      	ldr	r3, [sp, #4]
 8000318:	4c4a      	ldr	r4, [pc, #296]	; (8000444 <__aeabi_ddiv+0x1e4>)
 800031a:	469c      	mov	ip, r3
 800031c:	2300      	movs	r3, #0
 800031e:	2200      	movs	r2, #0
 8000320:	4698      	mov	r8, r3
 8000322:	e06b      	b.n	80003fc <__aeabi_ddiv+0x19c>
 8000324:	0003      	movs	r3, r0
 8000326:	4333      	orrs	r3, r6
 8000328:	4699      	mov	r9, r3
 800032a:	d04e      	beq.n	80003ca <__aeabi_ddiv+0x16a>
 800032c:	2e00      	cmp	r6, #0
 800032e:	d100      	bne.n	8000332 <__aeabi_ddiv+0xd2>
 8000330:	e1bc      	b.n	80006ac <__aeabi_ddiv+0x44c>
 8000332:	0030      	movs	r0, r6
 8000334:	f000 fe14 	bl	8000f60 <__clzsi2>
 8000338:	0003      	movs	r3, r0
 800033a:	3b0b      	subs	r3, #11
 800033c:	2b1c      	cmp	r3, #28
 800033e:	dd00      	ble.n	8000342 <__aeabi_ddiv+0xe2>
 8000340:	e1ac      	b.n	800069c <__aeabi_ddiv+0x43c>
 8000342:	221d      	movs	r2, #29
 8000344:	1ad3      	subs	r3, r2, r3
 8000346:	465a      	mov	r2, fp
 8000348:	0001      	movs	r1, r0
 800034a:	40da      	lsrs	r2, r3
 800034c:	3908      	subs	r1, #8
 800034e:	408e      	lsls	r6, r1
 8000350:	0013      	movs	r3, r2
 8000352:	4333      	orrs	r3, r6
 8000354:	4699      	mov	r9, r3
 8000356:	465b      	mov	r3, fp
 8000358:	408b      	lsls	r3, r1
 800035a:	4698      	mov	r8, r3
 800035c:	2300      	movs	r3, #0
 800035e:	4c3c      	ldr	r4, [pc, #240]	; (8000450 <__aeabi_ddiv+0x1f0>)
 8000360:	2600      	movs	r6, #0
 8000362:	1a24      	subs	r4, r4, r0
 8000364:	9303      	str	r3, [sp, #12]
 8000366:	e79f      	b.n	80002a8 <__aeabi_ddiv+0x48>
 8000368:	4651      	mov	r1, sl
 800036a:	465a      	mov	r2, fp
 800036c:	4311      	orrs	r1, r2
 800036e:	d129      	bne.n	80003c4 <__aeabi_ddiv+0x164>
 8000370:	2200      	movs	r2, #0
 8000372:	4693      	mov	fp, r2
 8000374:	3202      	adds	r2, #2
 8000376:	e7b1      	b.n	80002dc <__aeabi_ddiv+0x7c>
 8000378:	4659      	mov	r1, fp
 800037a:	4301      	orrs	r1, r0
 800037c:	d01e      	beq.n	80003bc <__aeabi_ddiv+0x15c>
 800037e:	465b      	mov	r3, fp
 8000380:	2b00      	cmp	r3, #0
 8000382:	d100      	bne.n	8000386 <__aeabi_ddiv+0x126>
 8000384:	e19e      	b.n	80006c4 <__aeabi_ddiv+0x464>
 8000386:	4658      	mov	r0, fp
 8000388:	f000 fdea 	bl	8000f60 <__clzsi2>
 800038c:	0003      	movs	r3, r0
 800038e:	3b0b      	subs	r3, #11
 8000390:	2b1c      	cmp	r3, #28
 8000392:	dd00      	ble.n	8000396 <__aeabi_ddiv+0x136>
 8000394:	e18f      	b.n	80006b6 <__aeabi_ddiv+0x456>
 8000396:	0002      	movs	r2, r0
 8000398:	4659      	mov	r1, fp
 800039a:	3a08      	subs	r2, #8
 800039c:	4091      	lsls	r1, r2
 800039e:	468b      	mov	fp, r1
 80003a0:	211d      	movs	r1, #29
 80003a2:	1acb      	subs	r3, r1, r3
 80003a4:	4651      	mov	r1, sl
 80003a6:	40d9      	lsrs	r1, r3
 80003a8:	000b      	movs	r3, r1
 80003aa:	4659      	mov	r1, fp
 80003ac:	430b      	orrs	r3, r1
 80003ae:	4651      	mov	r1, sl
 80003b0:	469b      	mov	fp, r3
 80003b2:	4091      	lsls	r1, r2
 80003b4:	4b26      	ldr	r3, [pc, #152]	; (8000450 <__aeabi_ddiv+0x1f0>)
 80003b6:	2200      	movs	r2, #0
 80003b8:	1a1b      	subs	r3, r3, r0
 80003ba:	e78f      	b.n	80002dc <__aeabi_ddiv+0x7c>
 80003bc:	2300      	movs	r3, #0
 80003be:	2201      	movs	r2, #1
 80003c0:	469b      	mov	fp, r3
 80003c2:	e78b      	b.n	80002dc <__aeabi_ddiv+0x7c>
 80003c4:	4651      	mov	r1, sl
 80003c6:	2203      	movs	r2, #3
 80003c8:	e788      	b.n	80002dc <__aeabi_ddiv+0x7c>
 80003ca:	2300      	movs	r3, #0
 80003cc:	4698      	mov	r8, r3
 80003ce:	3301      	adds	r3, #1
 80003d0:	2604      	movs	r6, #4
 80003d2:	2400      	movs	r4, #0
 80003d4:	9303      	str	r3, [sp, #12]
 80003d6:	e767      	b.n	80002a8 <__aeabi_ddiv+0x48>
 80003d8:	2303      	movs	r3, #3
 80003da:	46b1      	mov	r9, r6
 80003dc:	9303      	str	r3, [sp, #12]
 80003de:	260c      	movs	r6, #12
 80003e0:	e762      	b.n	80002a8 <__aeabi_ddiv+0x48>
 80003e2:	2a03      	cmp	r2, #3
 80003e4:	d100      	bne.n	80003e8 <__aeabi_ddiv+0x188>
 80003e6:	e25c      	b.n	80008a2 <__aeabi_ddiv+0x642>
 80003e8:	9b01      	ldr	r3, [sp, #4]
 80003ea:	2a01      	cmp	r2, #1
 80003ec:	d000      	beq.n	80003f0 <__aeabi_ddiv+0x190>
 80003ee:	e1e4      	b.n	80007ba <__aeabi_ddiv+0x55a>
 80003f0:	4013      	ands	r3, r2
 80003f2:	469c      	mov	ip, r3
 80003f4:	2300      	movs	r3, #0
 80003f6:	2400      	movs	r4, #0
 80003f8:	2200      	movs	r2, #0
 80003fa:	4698      	mov	r8, r3
 80003fc:	2100      	movs	r1, #0
 80003fe:	0312      	lsls	r2, r2, #12
 8000400:	0b13      	lsrs	r3, r2, #12
 8000402:	0d0a      	lsrs	r2, r1, #20
 8000404:	0512      	lsls	r2, r2, #20
 8000406:	431a      	orrs	r2, r3
 8000408:	0523      	lsls	r3, r4, #20
 800040a:	4c12      	ldr	r4, [pc, #72]	; (8000454 <__aeabi_ddiv+0x1f4>)
 800040c:	4640      	mov	r0, r8
 800040e:	4022      	ands	r2, r4
 8000410:	4313      	orrs	r3, r2
 8000412:	4662      	mov	r2, ip
 8000414:	005b      	lsls	r3, r3, #1
 8000416:	07d2      	lsls	r2, r2, #31
 8000418:	085b      	lsrs	r3, r3, #1
 800041a:	4313      	orrs	r3, r2
 800041c:	0019      	movs	r1, r3
 800041e:	b007      	add	sp, #28
 8000420:	bc3c      	pop	{r2, r3, r4, r5}
 8000422:	4690      	mov	r8, r2
 8000424:	4699      	mov	r9, r3
 8000426:	46a2      	mov	sl, r4
 8000428:	46ab      	mov	fp, r5
 800042a:	bdf0      	pop	{r4, r5, r6, r7, pc}
 800042c:	2300      	movs	r3, #0
 800042e:	2280      	movs	r2, #128	; 0x80
 8000430:	469c      	mov	ip, r3
 8000432:	0312      	lsls	r2, r2, #12
 8000434:	4698      	mov	r8, r3
 8000436:	4c03      	ldr	r4, [pc, #12]	; (8000444 <__aeabi_ddiv+0x1e4>)
 8000438:	e7e0      	b.n	80003fc <__aeabi_ddiv+0x19c>
 800043a:	2300      	movs	r3, #0
 800043c:	4c01      	ldr	r4, [pc, #4]	; (8000444 <__aeabi_ddiv+0x1e4>)
 800043e:	2200      	movs	r2, #0
 8000440:	4698      	mov	r8, r3
 8000442:	e7db      	b.n	80003fc <__aeabi_ddiv+0x19c>
 8000444:	000007ff 	.word	0x000007ff
 8000448:	fffffc01 	.word	0xfffffc01
 800044c:	0800153c 	.word	0x0800153c
 8000450:	fffffc0d 	.word	0xfffffc0d
 8000454:	800fffff 	.word	0x800fffff
 8000458:	45d9      	cmp	r9, fp
 800045a:	d900      	bls.n	800045e <__aeabi_ddiv+0x1fe>
 800045c:	e139      	b.n	80006d2 <__aeabi_ddiv+0x472>
 800045e:	d100      	bne.n	8000462 <__aeabi_ddiv+0x202>
 8000460:	e134      	b.n	80006cc <__aeabi_ddiv+0x46c>
 8000462:	2300      	movs	r3, #0
 8000464:	4646      	mov	r6, r8
 8000466:	464d      	mov	r5, r9
 8000468:	469a      	mov	sl, r3
 800046a:	3c01      	subs	r4, #1
 800046c:	465b      	mov	r3, fp
 800046e:	0e0a      	lsrs	r2, r1, #24
 8000470:	021b      	lsls	r3, r3, #8
 8000472:	431a      	orrs	r2, r3
 8000474:	020b      	lsls	r3, r1, #8
 8000476:	0c17      	lsrs	r7, r2, #16
 8000478:	9303      	str	r3, [sp, #12]
 800047a:	0413      	lsls	r3, r2, #16
 800047c:	0c1b      	lsrs	r3, r3, #16
 800047e:	0039      	movs	r1, r7
 8000480:	0028      	movs	r0, r5
 8000482:	4690      	mov	r8, r2
 8000484:	9301      	str	r3, [sp, #4]
 8000486:	f7ff fe3f 	bl	8000108 <__udivsi3>
 800048a:	0002      	movs	r2, r0
 800048c:	9b01      	ldr	r3, [sp, #4]
 800048e:	4683      	mov	fp, r0
 8000490:	435a      	muls	r2, r3
 8000492:	0028      	movs	r0, r5
 8000494:	0039      	movs	r1, r7
 8000496:	4691      	mov	r9, r2
 8000498:	f7ff febc 	bl	8000214 <__aeabi_uidivmod>
 800049c:	0c35      	lsrs	r5, r6, #16
 800049e:	0409      	lsls	r1, r1, #16
 80004a0:	430d      	orrs	r5, r1
 80004a2:	45a9      	cmp	r9, r5
 80004a4:	d90d      	bls.n	80004c2 <__aeabi_ddiv+0x262>
 80004a6:	465b      	mov	r3, fp
 80004a8:	4445      	add	r5, r8
 80004aa:	3b01      	subs	r3, #1
 80004ac:	45a8      	cmp	r8, r5
 80004ae:	d900      	bls.n	80004b2 <__aeabi_ddiv+0x252>
 80004b0:	e13a      	b.n	8000728 <__aeabi_ddiv+0x4c8>
 80004b2:	45a9      	cmp	r9, r5
 80004b4:	d800      	bhi.n	80004b8 <__aeabi_ddiv+0x258>
 80004b6:	e137      	b.n	8000728 <__aeabi_ddiv+0x4c8>
 80004b8:	2302      	movs	r3, #2
 80004ba:	425b      	negs	r3, r3
 80004bc:	469c      	mov	ip, r3
 80004be:	4445      	add	r5, r8
 80004c0:	44e3      	add	fp, ip
 80004c2:	464b      	mov	r3, r9
 80004c4:	1aeb      	subs	r3, r5, r3
 80004c6:	0039      	movs	r1, r7
 80004c8:	0018      	movs	r0, r3
 80004ca:	9304      	str	r3, [sp, #16]
 80004cc:	f7ff fe1c 	bl	8000108 <__udivsi3>
 80004d0:	9b01      	ldr	r3, [sp, #4]
 80004d2:	0005      	movs	r5, r0
 80004d4:	4343      	muls	r3, r0
 80004d6:	0039      	movs	r1, r7
 80004d8:	9804      	ldr	r0, [sp, #16]
 80004da:	4699      	mov	r9, r3
 80004dc:	f7ff fe9a 	bl	8000214 <__aeabi_uidivmod>
 80004e0:	0433      	lsls	r3, r6, #16
 80004e2:	0409      	lsls	r1, r1, #16
 80004e4:	0c1b      	lsrs	r3, r3, #16
 80004e6:	430b      	orrs	r3, r1
 80004e8:	4599      	cmp	r9, r3
 80004ea:	d909      	bls.n	8000500 <__aeabi_ddiv+0x2a0>
 80004ec:	4443      	add	r3, r8
 80004ee:	1e6a      	subs	r2, r5, #1
 80004f0:	4598      	cmp	r8, r3
 80004f2:	d900      	bls.n	80004f6 <__aeabi_ddiv+0x296>
 80004f4:	e11a      	b.n	800072c <__aeabi_ddiv+0x4cc>
 80004f6:	4599      	cmp	r9, r3
 80004f8:	d800      	bhi.n	80004fc <__aeabi_ddiv+0x29c>
 80004fa:	e117      	b.n	800072c <__aeabi_ddiv+0x4cc>
 80004fc:	3d02      	subs	r5, #2
 80004fe:	4443      	add	r3, r8
 8000500:	464a      	mov	r2, r9
 8000502:	1a9b      	subs	r3, r3, r2
 8000504:	465a      	mov	r2, fp
 8000506:	0412      	lsls	r2, r2, #16
 8000508:	432a      	orrs	r2, r5
 800050a:	9903      	ldr	r1, [sp, #12]
 800050c:	4693      	mov	fp, r2
 800050e:	0c10      	lsrs	r0, r2, #16
 8000510:	0c0a      	lsrs	r2, r1, #16
 8000512:	4691      	mov	r9, r2
 8000514:	0409      	lsls	r1, r1, #16
 8000516:	465a      	mov	r2, fp
 8000518:	0c09      	lsrs	r1, r1, #16
 800051a:	464e      	mov	r6, r9
 800051c:	000d      	movs	r5, r1
 800051e:	0412      	lsls	r2, r2, #16
 8000520:	0c12      	lsrs	r2, r2, #16
 8000522:	4345      	muls	r5, r0
 8000524:	9105      	str	r1, [sp, #20]
 8000526:	4351      	muls	r1, r2
 8000528:	4372      	muls	r2, r6
 800052a:	4370      	muls	r0, r6
 800052c:	1952      	adds	r2, r2, r5
 800052e:	0c0e      	lsrs	r6, r1, #16
 8000530:	18b2      	adds	r2, r6, r2
 8000532:	4295      	cmp	r5, r2
 8000534:	d903      	bls.n	800053e <__aeabi_ddiv+0x2de>
 8000536:	2580      	movs	r5, #128	; 0x80
 8000538:	026d      	lsls	r5, r5, #9
 800053a:	46ac      	mov	ip, r5
 800053c:	4460      	add	r0, ip
 800053e:	0c15      	lsrs	r5, r2, #16
 8000540:	0409      	lsls	r1, r1, #16
 8000542:	0412      	lsls	r2, r2, #16
 8000544:	0c09      	lsrs	r1, r1, #16
 8000546:	1828      	adds	r0, r5, r0
 8000548:	1852      	adds	r2, r2, r1
 800054a:	4283      	cmp	r3, r0
 800054c:	d200      	bcs.n	8000550 <__aeabi_ddiv+0x2f0>
 800054e:	e0ce      	b.n	80006ee <__aeabi_ddiv+0x48e>
 8000550:	d100      	bne.n	8000554 <__aeabi_ddiv+0x2f4>
 8000552:	e0c8      	b.n	80006e6 <__aeabi_ddiv+0x486>
 8000554:	1a1d      	subs	r5, r3, r0
 8000556:	4653      	mov	r3, sl
 8000558:	1a9e      	subs	r6, r3, r2
 800055a:	45b2      	cmp	sl, r6
 800055c:	4192      	sbcs	r2, r2
 800055e:	4252      	negs	r2, r2
 8000560:	1aab      	subs	r3, r5, r2
 8000562:	469a      	mov	sl, r3
 8000564:	4598      	cmp	r8, r3
 8000566:	d100      	bne.n	800056a <__aeabi_ddiv+0x30a>
 8000568:	e117      	b.n	800079a <__aeabi_ddiv+0x53a>
 800056a:	0039      	movs	r1, r7
 800056c:	0018      	movs	r0, r3
 800056e:	f7ff fdcb 	bl	8000108 <__udivsi3>
 8000572:	9b01      	ldr	r3, [sp, #4]
 8000574:	0005      	movs	r5, r0
 8000576:	4343      	muls	r3, r0
 8000578:	0039      	movs	r1, r7
 800057a:	4650      	mov	r0, sl
 800057c:	9304      	str	r3, [sp, #16]
 800057e:	f7ff fe49 	bl	8000214 <__aeabi_uidivmod>
 8000582:	9804      	ldr	r0, [sp, #16]
 8000584:	040b      	lsls	r3, r1, #16
 8000586:	0c31      	lsrs	r1, r6, #16
 8000588:	4319      	orrs	r1, r3
 800058a:	4288      	cmp	r0, r1
 800058c:	d909      	bls.n	80005a2 <__aeabi_ddiv+0x342>
 800058e:	4441      	add	r1, r8
 8000590:	1e6b      	subs	r3, r5, #1
 8000592:	4588      	cmp	r8, r1
 8000594:	d900      	bls.n	8000598 <__aeabi_ddiv+0x338>
 8000596:	e107      	b.n	80007a8 <__aeabi_ddiv+0x548>
 8000598:	4288      	cmp	r0, r1
 800059a:	d800      	bhi.n	800059e <__aeabi_ddiv+0x33e>
 800059c:	e104      	b.n	80007a8 <__aeabi_ddiv+0x548>
 800059e:	3d02      	subs	r5, #2
 80005a0:	4441      	add	r1, r8
 80005a2:	9b04      	ldr	r3, [sp, #16]
 80005a4:	1acb      	subs	r3, r1, r3
 80005a6:	0018      	movs	r0, r3
 80005a8:	0039      	movs	r1, r7
 80005aa:	9304      	str	r3, [sp, #16]
 80005ac:	f7ff fdac 	bl	8000108 <__udivsi3>
 80005b0:	9b01      	ldr	r3, [sp, #4]
 80005b2:	4682      	mov	sl, r0
 80005b4:	4343      	muls	r3, r0
 80005b6:	0039      	movs	r1, r7
 80005b8:	9804      	ldr	r0, [sp, #16]
 80005ba:	9301      	str	r3, [sp, #4]
 80005bc:	f7ff fe2a 	bl	8000214 <__aeabi_uidivmod>
 80005c0:	9801      	ldr	r0, [sp, #4]
 80005c2:	040b      	lsls	r3, r1, #16
 80005c4:	0431      	lsls	r1, r6, #16
 80005c6:	0c09      	lsrs	r1, r1, #16
 80005c8:	4319      	orrs	r1, r3
 80005ca:	4288      	cmp	r0, r1
 80005cc:	d90d      	bls.n	80005ea <__aeabi_ddiv+0x38a>
 80005ce:	4653      	mov	r3, sl
 80005d0:	4441      	add	r1, r8
 80005d2:	3b01      	subs	r3, #1
 80005d4:	4588      	cmp	r8, r1
 80005d6:	d900      	bls.n	80005da <__aeabi_ddiv+0x37a>
 80005d8:	e0e8      	b.n	80007ac <__aeabi_ddiv+0x54c>
 80005da:	4288      	cmp	r0, r1
 80005dc:	d800      	bhi.n	80005e0 <__aeabi_ddiv+0x380>
 80005de:	e0e5      	b.n	80007ac <__aeabi_ddiv+0x54c>
 80005e0:	2302      	movs	r3, #2
 80005e2:	425b      	negs	r3, r3
 80005e4:	469c      	mov	ip, r3
 80005e6:	4441      	add	r1, r8
 80005e8:	44e2      	add	sl, ip
 80005ea:	9b01      	ldr	r3, [sp, #4]
 80005ec:	042d      	lsls	r5, r5, #16
 80005ee:	1ace      	subs	r6, r1, r3
 80005f0:	4651      	mov	r1, sl
 80005f2:	4329      	orrs	r1, r5
 80005f4:	9d05      	ldr	r5, [sp, #20]
 80005f6:	464f      	mov	r7, r9
 80005f8:	002a      	movs	r2, r5
 80005fa:	040b      	lsls	r3, r1, #16
 80005fc:	0c08      	lsrs	r0, r1, #16
 80005fe:	0c1b      	lsrs	r3, r3, #16
 8000600:	435a      	muls	r2, r3
 8000602:	4345      	muls	r5, r0
 8000604:	437b      	muls	r3, r7
 8000606:	4378      	muls	r0, r7
 8000608:	195b      	adds	r3, r3, r5
 800060a:	0c17      	lsrs	r7, r2, #16
 800060c:	18fb      	adds	r3, r7, r3
 800060e:	429d      	cmp	r5, r3
 8000610:	d903      	bls.n	800061a <__aeabi_ddiv+0x3ba>
 8000612:	2580      	movs	r5, #128	; 0x80
 8000614:	026d      	lsls	r5, r5, #9
 8000616:	46ac      	mov	ip, r5
 8000618:	4460      	add	r0, ip
 800061a:	0c1d      	lsrs	r5, r3, #16
 800061c:	0412      	lsls	r2, r2, #16
 800061e:	041b      	lsls	r3, r3, #16
 8000620:	0c12      	lsrs	r2, r2, #16
 8000622:	1828      	adds	r0, r5, r0
 8000624:	189b      	adds	r3, r3, r2
 8000626:	4286      	cmp	r6, r0
 8000628:	d200      	bcs.n	800062c <__aeabi_ddiv+0x3cc>
 800062a:	e093      	b.n	8000754 <__aeabi_ddiv+0x4f4>
 800062c:	d100      	bne.n	8000630 <__aeabi_ddiv+0x3d0>
 800062e:	e08e      	b.n	800074e <__aeabi_ddiv+0x4ee>
 8000630:	2301      	movs	r3, #1
 8000632:	4319      	orrs	r1, r3
 8000634:	4ba0      	ldr	r3, [pc, #640]	; (80008b8 <__aeabi_ddiv+0x658>)
 8000636:	18e3      	adds	r3, r4, r3
 8000638:	2b00      	cmp	r3, #0
 800063a:	dc00      	bgt.n	800063e <__aeabi_ddiv+0x3de>
 800063c:	e099      	b.n	8000772 <__aeabi_ddiv+0x512>
 800063e:	074a      	lsls	r2, r1, #29
 8000640:	d000      	beq.n	8000644 <__aeabi_ddiv+0x3e4>
 8000642:	e09e      	b.n	8000782 <__aeabi_ddiv+0x522>
 8000644:	465a      	mov	r2, fp
 8000646:	01d2      	lsls	r2, r2, #7
 8000648:	d506      	bpl.n	8000658 <__aeabi_ddiv+0x3f8>
 800064a:	465a      	mov	r2, fp
 800064c:	4b9b      	ldr	r3, [pc, #620]	; (80008bc <__aeabi_ddiv+0x65c>)
 800064e:	401a      	ands	r2, r3
 8000650:	2380      	movs	r3, #128	; 0x80
 8000652:	4693      	mov	fp, r2
 8000654:	00db      	lsls	r3, r3, #3
 8000656:	18e3      	adds	r3, r4, r3
 8000658:	4a99      	ldr	r2, [pc, #612]	; (80008c0 <__aeabi_ddiv+0x660>)
 800065a:	4293      	cmp	r3, r2
 800065c:	dd68      	ble.n	8000730 <__aeabi_ddiv+0x4d0>
 800065e:	2301      	movs	r3, #1
 8000660:	9a02      	ldr	r2, [sp, #8]
 8000662:	4c98      	ldr	r4, [pc, #608]	; (80008c4 <__aeabi_ddiv+0x664>)
 8000664:	401a      	ands	r2, r3
 8000666:	2300      	movs	r3, #0
 8000668:	4694      	mov	ip, r2
 800066a:	4698      	mov	r8, r3
 800066c:	2200      	movs	r2, #0
 800066e:	e6c5      	b.n	80003fc <__aeabi_ddiv+0x19c>
 8000670:	2280      	movs	r2, #128	; 0x80
 8000672:	464b      	mov	r3, r9
 8000674:	0312      	lsls	r2, r2, #12
 8000676:	4213      	tst	r3, r2
 8000678:	d00a      	beq.n	8000690 <__aeabi_ddiv+0x430>
 800067a:	465b      	mov	r3, fp
 800067c:	4213      	tst	r3, r2
 800067e:	d106      	bne.n	800068e <__aeabi_ddiv+0x42e>
 8000680:	431a      	orrs	r2, r3
 8000682:	0312      	lsls	r2, r2, #12
 8000684:	0b12      	lsrs	r2, r2, #12
 8000686:	46ac      	mov	ip, r5
 8000688:	4688      	mov	r8, r1
 800068a:	4c8e      	ldr	r4, [pc, #568]	; (80008c4 <__aeabi_ddiv+0x664>)
 800068c:	e6b6      	b.n	80003fc <__aeabi_ddiv+0x19c>
 800068e:	464b      	mov	r3, r9
 8000690:	431a      	orrs	r2, r3
 8000692:	0312      	lsls	r2, r2, #12
 8000694:	0b12      	lsrs	r2, r2, #12
 8000696:	46bc      	mov	ip, r7
 8000698:	4c8a      	ldr	r4, [pc, #552]	; (80008c4 <__aeabi_ddiv+0x664>)
 800069a:	e6af      	b.n	80003fc <__aeabi_ddiv+0x19c>
 800069c:	0003      	movs	r3, r0
 800069e:	465a      	mov	r2, fp
 80006a0:	3b28      	subs	r3, #40	; 0x28
 80006a2:	409a      	lsls	r2, r3
 80006a4:	2300      	movs	r3, #0
 80006a6:	4691      	mov	r9, r2
 80006a8:	4698      	mov	r8, r3
 80006aa:	e657      	b.n	800035c <__aeabi_ddiv+0xfc>
 80006ac:	4658      	mov	r0, fp
 80006ae:	f000 fc57 	bl	8000f60 <__clzsi2>
 80006b2:	3020      	adds	r0, #32
 80006b4:	e640      	b.n	8000338 <__aeabi_ddiv+0xd8>
 80006b6:	0003      	movs	r3, r0
 80006b8:	4652      	mov	r2, sl
 80006ba:	3b28      	subs	r3, #40	; 0x28
 80006bc:	409a      	lsls	r2, r3
 80006be:	2100      	movs	r1, #0
 80006c0:	4693      	mov	fp, r2
 80006c2:	e677      	b.n	80003b4 <__aeabi_ddiv+0x154>
 80006c4:	f000 fc4c 	bl	8000f60 <__clzsi2>
 80006c8:	3020      	adds	r0, #32
 80006ca:	e65f      	b.n	800038c <__aeabi_ddiv+0x12c>
 80006cc:	4588      	cmp	r8, r1
 80006ce:	d200      	bcs.n	80006d2 <__aeabi_ddiv+0x472>
 80006d0:	e6c7      	b.n	8000462 <__aeabi_ddiv+0x202>
 80006d2:	464b      	mov	r3, r9
 80006d4:	07de      	lsls	r6, r3, #31
 80006d6:	085d      	lsrs	r5, r3, #1
 80006d8:	4643      	mov	r3, r8
 80006da:	085b      	lsrs	r3, r3, #1
 80006dc:	431e      	orrs	r6, r3
 80006de:	4643      	mov	r3, r8
 80006e0:	07db      	lsls	r3, r3, #31
 80006e2:	469a      	mov	sl, r3
 80006e4:	e6c2      	b.n	800046c <__aeabi_ddiv+0x20c>
 80006e6:	2500      	movs	r5, #0
 80006e8:	4592      	cmp	sl, r2
 80006ea:	d300      	bcc.n	80006ee <__aeabi_ddiv+0x48e>
 80006ec:	e733      	b.n	8000556 <__aeabi_ddiv+0x2f6>
 80006ee:	9e03      	ldr	r6, [sp, #12]
 80006f0:	4659      	mov	r1, fp
 80006f2:	46b4      	mov	ip, r6
 80006f4:	44e2      	add	sl, ip
 80006f6:	45b2      	cmp	sl, r6
 80006f8:	41ad      	sbcs	r5, r5
 80006fa:	426d      	negs	r5, r5
 80006fc:	4445      	add	r5, r8
 80006fe:	18eb      	adds	r3, r5, r3
 8000700:	3901      	subs	r1, #1
 8000702:	4598      	cmp	r8, r3
 8000704:	d207      	bcs.n	8000716 <__aeabi_ddiv+0x4b6>
 8000706:	4298      	cmp	r0, r3
 8000708:	d900      	bls.n	800070c <__aeabi_ddiv+0x4ac>
 800070a:	e07f      	b.n	800080c <__aeabi_ddiv+0x5ac>
 800070c:	d100      	bne.n	8000710 <__aeabi_ddiv+0x4b0>
 800070e:	e0bc      	b.n	800088a <__aeabi_ddiv+0x62a>
 8000710:	1a1d      	subs	r5, r3, r0
 8000712:	468b      	mov	fp, r1
 8000714:	e71f      	b.n	8000556 <__aeabi_ddiv+0x2f6>
 8000716:	4598      	cmp	r8, r3
 8000718:	d1fa      	bne.n	8000710 <__aeabi_ddiv+0x4b0>
 800071a:	9d03      	ldr	r5, [sp, #12]
 800071c:	4555      	cmp	r5, sl
 800071e:	d9f2      	bls.n	8000706 <__aeabi_ddiv+0x4a6>
 8000720:	4643      	mov	r3, r8
 8000722:	468b      	mov	fp, r1
 8000724:	1a1d      	subs	r5, r3, r0
 8000726:	e716      	b.n	8000556 <__aeabi_ddiv+0x2f6>
 8000728:	469b      	mov	fp, r3
 800072a:	e6ca      	b.n	80004c2 <__aeabi_ddiv+0x262>
 800072c:	0015      	movs	r5, r2
 800072e:	e6e7      	b.n	8000500 <__aeabi_ddiv+0x2a0>
 8000730:	465a      	mov	r2, fp
 8000732:	08c9      	lsrs	r1, r1, #3
 8000734:	0752      	lsls	r2, r2, #29
 8000736:	430a      	orrs	r2, r1
 8000738:	055b      	lsls	r3, r3, #21
 800073a:	4690      	mov	r8, r2
 800073c:	0d5c      	lsrs	r4, r3, #21
 800073e:	465a      	mov	r2, fp
 8000740:	2301      	movs	r3, #1
 8000742:	9902      	ldr	r1, [sp, #8]
 8000744:	0252      	lsls	r2, r2, #9
 8000746:	4019      	ands	r1, r3
 8000748:	0b12      	lsrs	r2, r2, #12
 800074a:	468c      	mov	ip, r1
 800074c:	e656      	b.n	80003fc <__aeabi_ddiv+0x19c>
 800074e:	2b00      	cmp	r3, #0
 8000750:	d100      	bne.n	8000754 <__aeabi_ddiv+0x4f4>
 8000752:	e76f      	b.n	8000634 <__aeabi_ddiv+0x3d4>
 8000754:	4446      	add	r6, r8
 8000756:	1e4a      	subs	r2, r1, #1
 8000758:	45b0      	cmp	r8, r6
 800075a:	d929      	bls.n	80007b0 <__aeabi_ddiv+0x550>
 800075c:	0011      	movs	r1, r2
 800075e:	4286      	cmp	r6, r0
 8000760:	d000      	beq.n	8000764 <__aeabi_ddiv+0x504>
 8000762:	e765      	b.n	8000630 <__aeabi_ddiv+0x3d0>
 8000764:	9a03      	ldr	r2, [sp, #12]
 8000766:	4293      	cmp	r3, r2
 8000768:	d000      	beq.n	800076c <__aeabi_ddiv+0x50c>
 800076a:	e761      	b.n	8000630 <__aeabi_ddiv+0x3d0>
 800076c:	e762      	b.n	8000634 <__aeabi_ddiv+0x3d4>
 800076e:	2101      	movs	r1, #1
 8000770:	4249      	negs	r1, r1
 8000772:	2001      	movs	r0, #1
 8000774:	1ac2      	subs	r2, r0, r3
 8000776:	2a38      	cmp	r2, #56	; 0x38
 8000778:	dd21      	ble.n	80007be <__aeabi_ddiv+0x55e>
 800077a:	9b02      	ldr	r3, [sp, #8]
 800077c:	4003      	ands	r3, r0
 800077e:	469c      	mov	ip, r3
 8000780:	e638      	b.n	80003f4 <__aeabi_ddiv+0x194>
 8000782:	220f      	movs	r2, #15
 8000784:	400a      	ands	r2, r1
 8000786:	2a04      	cmp	r2, #4
 8000788:	d100      	bne.n	800078c <__aeabi_ddiv+0x52c>
 800078a:	e75b      	b.n	8000644 <__aeabi_ddiv+0x3e4>
 800078c:	000a      	movs	r2, r1
 800078e:	1d11      	adds	r1, r2, #4
 8000790:	4291      	cmp	r1, r2
 8000792:	4192      	sbcs	r2, r2
 8000794:	4252      	negs	r2, r2
 8000796:	4493      	add	fp, r2
 8000798:	e754      	b.n	8000644 <__aeabi_ddiv+0x3e4>
 800079a:	4b47      	ldr	r3, [pc, #284]	; (80008b8 <__aeabi_ddiv+0x658>)
 800079c:	18e3      	adds	r3, r4, r3
 800079e:	2b00      	cmp	r3, #0
 80007a0:	dde5      	ble.n	800076e <__aeabi_ddiv+0x50e>
 80007a2:	2201      	movs	r2, #1
 80007a4:	4252      	negs	r2, r2
 80007a6:	e7f2      	b.n	800078e <__aeabi_ddiv+0x52e>
 80007a8:	001d      	movs	r5, r3
 80007aa:	e6fa      	b.n	80005a2 <__aeabi_ddiv+0x342>
 80007ac:	469a      	mov	sl, r3
 80007ae:	e71c      	b.n	80005ea <__aeabi_ddiv+0x38a>
 80007b0:	42b0      	cmp	r0, r6
 80007b2:	d839      	bhi.n	8000828 <__aeabi_ddiv+0x5c8>
 80007b4:	d06e      	beq.n	8000894 <__aeabi_ddiv+0x634>
 80007b6:	0011      	movs	r1, r2
 80007b8:	e73a      	b.n	8000630 <__aeabi_ddiv+0x3d0>
 80007ba:	9302      	str	r3, [sp, #8]
 80007bc:	e73a      	b.n	8000634 <__aeabi_ddiv+0x3d4>
 80007be:	2a1f      	cmp	r2, #31
 80007c0:	dc3c      	bgt.n	800083c <__aeabi_ddiv+0x5dc>
 80007c2:	2320      	movs	r3, #32
 80007c4:	1a9b      	subs	r3, r3, r2
 80007c6:	000c      	movs	r4, r1
 80007c8:	4658      	mov	r0, fp
 80007ca:	4099      	lsls	r1, r3
 80007cc:	4098      	lsls	r0, r3
 80007ce:	1e4b      	subs	r3, r1, #1
 80007d0:	4199      	sbcs	r1, r3
 80007d2:	465b      	mov	r3, fp
 80007d4:	40d4      	lsrs	r4, r2
 80007d6:	40d3      	lsrs	r3, r2
 80007d8:	4320      	orrs	r0, r4
 80007da:	4308      	orrs	r0, r1
 80007dc:	001a      	movs	r2, r3
 80007de:	0743      	lsls	r3, r0, #29
 80007e0:	d009      	beq.n	80007f6 <__aeabi_ddiv+0x596>
 80007e2:	230f      	movs	r3, #15
 80007e4:	4003      	ands	r3, r0
 80007e6:	2b04      	cmp	r3, #4
 80007e8:	d005      	beq.n	80007f6 <__aeabi_ddiv+0x596>
 80007ea:	0001      	movs	r1, r0
 80007ec:	1d08      	adds	r0, r1, #4
 80007ee:	4288      	cmp	r0, r1
 80007f0:	419b      	sbcs	r3, r3
 80007f2:	425b      	negs	r3, r3
 80007f4:	18d2      	adds	r2, r2, r3
 80007f6:	0213      	lsls	r3, r2, #8
 80007f8:	d53a      	bpl.n	8000870 <__aeabi_ddiv+0x610>
 80007fa:	2301      	movs	r3, #1
 80007fc:	9a02      	ldr	r2, [sp, #8]
 80007fe:	2401      	movs	r4, #1
 8000800:	401a      	ands	r2, r3
 8000802:	2300      	movs	r3, #0
 8000804:	4694      	mov	ip, r2
 8000806:	4698      	mov	r8, r3
 8000808:	2200      	movs	r2, #0
 800080a:	e5f7      	b.n	80003fc <__aeabi_ddiv+0x19c>
 800080c:	2102      	movs	r1, #2
 800080e:	4249      	negs	r1, r1
 8000810:	468c      	mov	ip, r1
 8000812:	9d03      	ldr	r5, [sp, #12]
 8000814:	44e3      	add	fp, ip
 8000816:	46ac      	mov	ip, r5
 8000818:	44e2      	add	sl, ip
 800081a:	45aa      	cmp	sl, r5
 800081c:	41ad      	sbcs	r5, r5
 800081e:	426d      	negs	r5, r5
 8000820:	4445      	add	r5, r8
 8000822:	18ed      	adds	r5, r5, r3
 8000824:	1a2d      	subs	r5, r5, r0
 8000826:	e696      	b.n	8000556 <__aeabi_ddiv+0x2f6>
 8000828:	1e8a      	subs	r2, r1, #2
 800082a:	9903      	ldr	r1, [sp, #12]
 800082c:	004d      	lsls	r5, r1, #1
 800082e:	428d      	cmp	r5, r1
 8000830:	4189      	sbcs	r1, r1
 8000832:	4249      	negs	r1, r1
 8000834:	4441      	add	r1, r8
 8000836:	1876      	adds	r6, r6, r1
 8000838:	9503      	str	r5, [sp, #12]
 800083a:	e78f      	b.n	800075c <__aeabi_ddiv+0x4fc>
 800083c:	201f      	movs	r0, #31
 800083e:	4240      	negs	r0, r0
 8000840:	1ac3      	subs	r3, r0, r3
 8000842:	4658      	mov	r0, fp
 8000844:	40d8      	lsrs	r0, r3
 8000846:	0003      	movs	r3, r0
 8000848:	2a20      	cmp	r2, #32
 800084a:	d028      	beq.n	800089e <__aeabi_ddiv+0x63e>
 800084c:	2040      	movs	r0, #64	; 0x40
 800084e:	465d      	mov	r5, fp
 8000850:	1a82      	subs	r2, r0, r2
 8000852:	4095      	lsls	r5, r2
 8000854:	4329      	orrs	r1, r5
 8000856:	1e4a      	subs	r2, r1, #1
 8000858:	4191      	sbcs	r1, r2
 800085a:	4319      	orrs	r1, r3
 800085c:	2307      	movs	r3, #7
 800085e:	2200      	movs	r2, #0
 8000860:	400b      	ands	r3, r1
 8000862:	d009      	beq.n	8000878 <__aeabi_ddiv+0x618>
 8000864:	230f      	movs	r3, #15
 8000866:	2200      	movs	r2, #0
 8000868:	400b      	ands	r3, r1
 800086a:	0008      	movs	r0, r1
 800086c:	2b04      	cmp	r3, #4
 800086e:	d1bd      	bne.n	80007ec <__aeabi_ddiv+0x58c>
 8000870:	0001      	movs	r1, r0
 8000872:	0753      	lsls	r3, r2, #29
 8000874:	0252      	lsls	r2, r2, #9
 8000876:	0b12      	lsrs	r2, r2, #12
 8000878:	08c9      	lsrs	r1, r1, #3
 800087a:	4319      	orrs	r1, r3
 800087c:	2301      	movs	r3, #1
 800087e:	4688      	mov	r8, r1
 8000880:	9902      	ldr	r1, [sp, #8]
 8000882:	2400      	movs	r4, #0
 8000884:	4019      	ands	r1, r3
 8000886:	468c      	mov	ip, r1
 8000888:	e5b8      	b.n	80003fc <__aeabi_ddiv+0x19c>
 800088a:	4552      	cmp	r2, sl
 800088c:	d8be      	bhi.n	800080c <__aeabi_ddiv+0x5ac>
 800088e:	468b      	mov	fp, r1
 8000890:	2500      	movs	r5, #0
 8000892:	e660      	b.n	8000556 <__aeabi_ddiv+0x2f6>
 8000894:	9d03      	ldr	r5, [sp, #12]
 8000896:	429d      	cmp	r5, r3
 8000898:	d3c6      	bcc.n	8000828 <__aeabi_ddiv+0x5c8>
 800089a:	0011      	movs	r1, r2
 800089c:	e762      	b.n	8000764 <__aeabi_ddiv+0x504>
 800089e:	2500      	movs	r5, #0
 80008a0:	e7d8      	b.n	8000854 <__aeabi_ddiv+0x5f4>
 80008a2:	2280      	movs	r2, #128	; 0x80
 80008a4:	465b      	mov	r3, fp
 80008a6:	0312      	lsls	r2, r2, #12
 80008a8:	431a      	orrs	r2, r3
 80008aa:	9b01      	ldr	r3, [sp, #4]
 80008ac:	0312      	lsls	r2, r2, #12
 80008ae:	0b12      	lsrs	r2, r2, #12
 80008b0:	469c      	mov	ip, r3
 80008b2:	4688      	mov	r8, r1
 80008b4:	4c03      	ldr	r4, [pc, #12]	; (80008c4 <__aeabi_ddiv+0x664>)
 80008b6:	e5a1      	b.n	80003fc <__aeabi_ddiv+0x19c>
 80008b8:	000003ff 	.word	0x000003ff
 80008bc:	feffffff 	.word	0xfeffffff
 80008c0:	000007fe 	.word	0x000007fe
 80008c4:	000007ff 	.word	0x000007ff

080008c8 <__aeabi_dmul>:
 80008c8:	b5f0      	push	{r4, r5, r6, r7, lr}
 80008ca:	4657      	mov	r7, sl
 80008cc:	4645      	mov	r5, r8
 80008ce:	46de      	mov	lr, fp
 80008d0:	464e      	mov	r6, r9
 80008d2:	b5e0      	push	{r5, r6, r7, lr}
 80008d4:	030c      	lsls	r4, r1, #12
 80008d6:	4698      	mov	r8, r3
 80008d8:	004e      	lsls	r6, r1, #1
 80008da:	0b23      	lsrs	r3, r4, #12
 80008dc:	b087      	sub	sp, #28
 80008de:	0007      	movs	r7, r0
 80008e0:	4692      	mov	sl, r2
 80008e2:	469b      	mov	fp, r3
 80008e4:	0d76      	lsrs	r6, r6, #21
 80008e6:	0fcd      	lsrs	r5, r1, #31
 80008e8:	2e00      	cmp	r6, #0
 80008ea:	d06b      	beq.n	80009c4 <__aeabi_dmul+0xfc>
 80008ec:	4b6d      	ldr	r3, [pc, #436]	; (8000aa4 <__aeabi_dmul+0x1dc>)
 80008ee:	429e      	cmp	r6, r3
 80008f0:	d035      	beq.n	800095e <__aeabi_dmul+0x96>
 80008f2:	2480      	movs	r4, #128	; 0x80
 80008f4:	465b      	mov	r3, fp
 80008f6:	0f42      	lsrs	r2, r0, #29
 80008f8:	0424      	lsls	r4, r4, #16
 80008fa:	00db      	lsls	r3, r3, #3
 80008fc:	4314      	orrs	r4, r2
 80008fe:	431c      	orrs	r4, r3
 8000900:	00c3      	lsls	r3, r0, #3
 8000902:	4699      	mov	r9, r3
 8000904:	4b68      	ldr	r3, [pc, #416]	; (8000aa8 <__aeabi_dmul+0x1e0>)
 8000906:	46a3      	mov	fp, r4
 8000908:	469c      	mov	ip, r3
 800090a:	2300      	movs	r3, #0
 800090c:	2700      	movs	r7, #0
 800090e:	4466      	add	r6, ip
 8000910:	9302      	str	r3, [sp, #8]
 8000912:	4643      	mov	r3, r8
 8000914:	031c      	lsls	r4, r3, #12
 8000916:	005a      	lsls	r2, r3, #1
 8000918:	0fdb      	lsrs	r3, r3, #31
 800091a:	4650      	mov	r0, sl
 800091c:	0b24      	lsrs	r4, r4, #12
 800091e:	0d52      	lsrs	r2, r2, #21
 8000920:	4698      	mov	r8, r3
 8000922:	d100      	bne.n	8000926 <__aeabi_dmul+0x5e>
 8000924:	e076      	b.n	8000a14 <__aeabi_dmul+0x14c>
 8000926:	4b5f      	ldr	r3, [pc, #380]	; (8000aa4 <__aeabi_dmul+0x1dc>)
 8000928:	429a      	cmp	r2, r3
 800092a:	d06d      	beq.n	8000a08 <__aeabi_dmul+0x140>
 800092c:	2380      	movs	r3, #128	; 0x80
 800092e:	0f41      	lsrs	r1, r0, #29
 8000930:	041b      	lsls	r3, r3, #16
 8000932:	430b      	orrs	r3, r1
 8000934:	495c      	ldr	r1, [pc, #368]	; (8000aa8 <__aeabi_dmul+0x1e0>)
 8000936:	00e4      	lsls	r4, r4, #3
 8000938:	468c      	mov	ip, r1
 800093a:	431c      	orrs	r4, r3
 800093c:	00c3      	lsls	r3, r0, #3
 800093e:	2000      	movs	r0, #0
 8000940:	4462      	add	r2, ip
 8000942:	4641      	mov	r1, r8
 8000944:	18b6      	adds	r6, r6, r2
 8000946:	4069      	eors	r1, r5
 8000948:	1c72      	adds	r2, r6, #1
 800094a:	9101      	str	r1, [sp, #4]
 800094c:	4694      	mov	ip, r2
 800094e:	4307      	orrs	r7, r0
 8000950:	2f0f      	cmp	r7, #15
 8000952:	d900      	bls.n	8000956 <__aeabi_dmul+0x8e>
 8000954:	e0b0      	b.n	8000ab8 <__aeabi_dmul+0x1f0>
 8000956:	4a55      	ldr	r2, [pc, #340]	; (8000aac <__aeabi_dmul+0x1e4>)
 8000958:	00bf      	lsls	r7, r7, #2
 800095a:	59d2      	ldr	r2, [r2, r7]
 800095c:	4697      	mov	pc, r2
 800095e:	465b      	mov	r3, fp
 8000960:	4303      	orrs	r3, r0
 8000962:	4699      	mov	r9, r3
 8000964:	d000      	beq.n	8000968 <__aeabi_dmul+0xa0>
 8000966:	e087      	b.n	8000a78 <__aeabi_dmul+0x1b0>
 8000968:	2300      	movs	r3, #0
 800096a:	469b      	mov	fp, r3
 800096c:	3302      	adds	r3, #2
 800096e:	2708      	movs	r7, #8
 8000970:	9302      	str	r3, [sp, #8]
 8000972:	e7ce      	b.n	8000912 <__aeabi_dmul+0x4a>
 8000974:	4642      	mov	r2, r8
 8000976:	9201      	str	r2, [sp, #4]
 8000978:	2802      	cmp	r0, #2
 800097a:	d067      	beq.n	8000a4c <__aeabi_dmul+0x184>
 800097c:	2803      	cmp	r0, #3
 800097e:	d100      	bne.n	8000982 <__aeabi_dmul+0xba>
 8000980:	e20e      	b.n	8000da0 <__aeabi_dmul+0x4d8>
 8000982:	2801      	cmp	r0, #1
 8000984:	d000      	beq.n	8000988 <__aeabi_dmul+0xc0>
 8000986:	e162      	b.n	8000c4e <__aeabi_dmul+0x386>
 8000988:	2300      	movs	r3, #0
 800098a:	2400      	movs	r4, #0
 800098c:	2200      	movs	r2, #0
 800098e:	4699      	mov	r9, r3
 8000990:	9901      	ldr	r1, [sp, #4]
 8000992:	4001      	ands	r1, r0
 8000994:	b2cd      	uxtb	r5, r1
 8000996:	2100      	movs	r1, #0
 8000998:	0312      	lsls	r2, r2, #12
 800099a:	0d0b      	lsrs	r3, r1, #20
 800099c:	0b12      	lsrs	r2, r2, #12
 800099e:	051b      	lsls	r3, r3, #20
 80009a0:	4313      	orrs	r3, r2
 80009a2:	4a43      	ldr	r2, [pc, #268]	; (8000ab0 <__aeabi_dmul+0x1e8>)
 80009a4:	0524      	lsls	r4, r4, #20
 80009a6:	4013      	ands	r3, r2
 80009a8:	431c      	orrs	r4, r3
 80009aa:	0064      	lsls	r4, r4, #1
 80009ac:	07ed      	lsls	r5, r5, #31
 80009ae:	0864      	lsrs	r4, r4, #1
 80009b0:	432c      	orrs	r4, r5
 80009b2:	4648      	mov	r0, r9
 80009b4:	0021      	movs	r1, r4
 80009b6:	b007      	add	sp, #28
 80009b8:	bc3c      	pop	{r2, r3, r4, r5}
 80009ba:	4690      	mov	r8, r2
 80009bc:	4699      	mov	r9, r3
 80009be:	46a2      	mov	sl, r4
 80009c0:	46ab      	mov	fp, r5
 80009c2:	bdf0      	pop	{r4, r5, r6, r7, pc}
 80009c4:	4303      	orrs	r3, r0
 80009c6:	4699      	mov	r9, r3
 80009c8:	d04f      	beq.n	8000a6a <__aeabi_dmul+0x1a2>
 80009ca:	465b      	mov	r3, fp
 80009cc:	2b00      	cmp	r3, #0
 80009ce:	d100      	bne.n	80009d2 <__aeabi_dmul+0x10a>
 80009d0:	e189      	b.n	8000ce6 <__aeabi_dmul+0x41e>
 80009d2:	4658      	mov	r0, fp
 80009d4:	f000 fac4 	bl	8000f60 <__clzsi2>
 80009d8:	0003      	movs	r3, r0
 80009da:	3b0b      	subs	r3, #11
 80009dc:	2b1c      	cmp	r3, #28
 80009de:	dd00      	ble.n	80009e2 <__aeabi_dmul+0x11a>
 80009e0:	e17a      	b.n	8000cd8 <__aeabi_dmul+0x410>
 80009e2:	221d      	movs	r2, #29
 80009e4:	1ad3      	subs	r3, r2, r3
 80009e6:	003a      	movs	r2, r7
 80009e8:	0001      	movs	r1, r0
 80009ea:	465c      	mov	r4, fp
 80009ec:	40da      	lsrs	r2, r3
 80009ee:	3908      	subs	r1, #8
 80009f0:	408c      	lsls	r4, r1
 80009f2:	0013      	movs	r3, r2
 80009f4:	408f      	lsls	r7, r1
 80009f6:	4323      	orrs	r3, r4
 80009f8:	469b      	mov	fp, r3
 80009fa:	46b9      	mov	r9, r7
 80009fc:	2300      	movs	r3, #0
 80009fe:	4e2d      	ldr	r6, [pc, #180]	; (8000ab4 <__aeabi_dmul+0x1ec>)
 8000a00:	2700      	movs	r7, #0
 8000a02:	1a36      	subs	r6, r6, r0
 8000a04:	9302      	str	r3, [sp, #8]
 8000a06:	e784      	b.n	8000912 <__aeabi_dmul+0x4a>
 8000a08:	4653      	mov	r3, sl
 8000a0a:	4323      	orrs	r3, r4
 8000a0c:	d12a      	bne.n	8000a64 <__aeabi_dmul+0x19c>
 8000a0e:	2400      	movs	r4, #0
 8000a10:	2002      	movs	r0, #2
 8000a12:	e796      	b.n	8000942 <__aeabi_dmul+0x7a>
 8000a14:	4653      	mov	r3, sl
 8000a16:	4323      	orrs	r3, r4
 8000a18:	d020      	beq.n	8000a5c <__aeabi_dmul+0x194>
 8000a1a:	2c00      	cmp	r4, #0
 8000a1c:	d100      	bne.n	8000a20 <__aeabi_dmul+0x158>
 8000a1e:	e157      	b.n	8000cd0 <__aeabi_dmul+0x408>
 8000a20:	0020      	movs	r0, r4
 8000a22:	f000 fa9d 	bl	8000f60 <__clzsi2>
 8000a26:	0003      	movs	r3, r0
 8000a28:	3b0b      	subs	r3, #11
 8000a2a:	2b1c      	cmp	r3, #28
 8000a2c:	dd00      	ble.n	8000a30 <__aeabi_dmul+0x168>
 8000a2e:	e149      	b.n	8000cc4 <__aeabi_dmul+0x3fc>
 8000a30:	211d      	movs	r1, #29
 8000a32:	1acb      	subs	r3, r1, r3
 8000a34:	4651      	mov	r1, sl
 8000a36:	0002      	movs	r2, r0
 8000a38:	40d9      	lsrs	r1, r3
 8000a3a:	4653      	mov	r3, sl
 8000a3c:	3a08      	subs	r2, #8
 8000a3e:	4094      	lsls	r4, r2
 8000a40:	4093      	lsls	r3, r2
 8000a42:	430c      	orrs	r4, r1
 8000a44:	4a1b      	ldr	r2, [pc, #108]	; (8000ab4 <__aeabi_dmul+0x1ec>)
 8000a46:	1a12      	subs	r2, r2, r0
 8000a48:	2000      	movs	r0, #0
 8000a4a:	e77a      	b.n	8000942 <__aeabi_dmul+0x7a>
 8000a4c:	2501      	movs	r5, #1
 8000a4e:	9b01      	ldr	r3, [sp, #4]
 8000a50:	4c14      	ldr	r4, [pc, #80]	; (8000aa4 <__aeabi_dmul+0x1dc>)
 8000a52:	401d      	ands	r5, r3
 8000a54:	2300      	movs	r3, #0
 8000a56:	2200      	movs	r2, #0
 8000a58:	4699      	mov	r9, r3
 8000a5a:	e79c      	b.n	8000996 <__aeabi_dmul+0xce>
 8000a5c:	2400      	movs	r4, #0
 8000a5e:	2200      	movs	r2, #0
 8000a60:	2001      	movs	r0, #1
 8000a62:	e76e      	b.n	8000942 <__aeabi_dmul+0x7a>
 8000a64:	4653      	mov	r3, sl
 8000a66:	2003      	movs	r0, #3
 8000a68:	e76b      	b.n	8000942 <__aeabi_dmul+0x7a>
 8000a6a:	2300      	movs	r3, #0
 8000a6c:	469b      	mov	fp, r3
 8000a6e:	3301      	adds	r3, #1
 8000a70:	2704      	movs	r7, #4
 8000a72:	2600      	movs	r6, #0
 8000a74:	9302      	str	r3, [sp, #8]
 8000a76:	e74c      	b.n	8000912 <__aeabi_dmul+0x4a>
 8000a78:	2303      	movs	r3, #3
 8000a7a:	4681      	mov	r9, r0
 8000a7c:	270c      	movs	r7, #12
 8000a7e:	9302      	str	r3, [sp, #8]
 8000a80:	e747      	b.n	8000912 <__aeabi_dmul+0x4a>
 8000a82:	2280      	movs	r2, #128	; 0x80
 8000a84:	2300      	movs	r3, #0
 8000a86:	2500      	movs	r5, #0
 8000a88:	0312      	lsls	r2, r2, #12
 8000a8a:	4699      	mov	r9, r3
 8000a8c:	4c05      	ldr	r4, [pc, #20]	; (8000aa4 <__aeabi_dmul+0x1dc>)
 8000a8e:	e782      	b.n	8000996 <__aeabi_dmul+0xce>
 8000a90:	465c      	mov	r4, fp
 8000a92:	464b      	mov	r3, r9
 8000a94:	9802      	ldr	r0, [sp, #8]
 8000a96:	e76f      	b.n	8000978 <__aeabi_dmul+0xb0>
 8000a98:	465c      	mov	r4, fp
 8000a9a:	464b      	mov	r3, r9
 8000a9c:	9501      	str	r5, [sp, #4]
 8000a9e:	9802      	ldr	r0, [sp, #8]
 8000aa0:	e76a      	b.n	8000978 <__aeabi_dmul+0xb0>
 8000aa2:	46c0      	nop			; (mov r8, r8)
 8000aa4:	000007ff 	.word	0x000007ff
 8000aa8:	fffffc01 	.word	0xfffffc01
 8000aac:	0800157c 	.word	0x0800157c
 8000ab0:	800fffff 	.word	0x800fffff
 8000ab4:	fffffc0d 	.word	0xfffffc0d
 8000ab8:	464a      	mov	r2, r9
 8000aba:	4649      	mov	r1, r9
 8000abc:	0c17      	lsrs	r7, r2, #16
 8000abe:	0c1a      	lsrs	r2, r3, #16
 8000ac0:	041b      	lsls	r3, r3, #16
 8000ac2:	0c1b      	lsrs	r3, r3, #16
 8000ac4:	0408      	lsls	r0, r1, #16
 8000ac6:	0019      	movs	r1, r3
 8000ac8:	0c00      	lsrs	r0, r0, #16
 8000aca:	4341      	muls	r1, r0
 8000acc:	0015      	movs	r5, r2
 8000ace:	4688      	mov	r8, r1
 8000ad0:	0019      	movs	r1, r3
 8000ad2:	437d      	muls	r5, r7
 8000ad4:	4379      	muls	r1, r7
 8000ad6:	9503      	str	r5, [sp, #12]
 8000ad8:	4689      	mov	r9, r1
 8000ada:	0029      	movs	r1, r5
 8000adc:	0015      	movs	r5, r2
 8000ade:	4345      	muls	r5, r0
 8000ae0:	444d      	add	r5, r9
 8000ae2:	9502      	str	r5, [sp, #8]
 8000ae4:	4645      	mov	r5, r8
 8000ae6:	0c2d      	lsrs	r5, r5, #16
 8000ae8:	46aa      	mov	sl, r5
 8000aea:	9d02      	ldr	r5, [sp, #8]
 8000aec:	4455      	add	r5, sl
 8000aee:	45a9      	cmp	r9, r5
 8000af0:	d906      	bls.n	8000b00 <__aeabi_dmul+0x238>
 8000af2:	468a      	mov	sl, r1
 8000af4:	2180      	movs	r1, #128	; 0x80
 8000af6:	0249      	lsls	r1, r1, #9
 8000af8:	4689      	mov	r9, r1
 8000afa:	44ca      	add	sl, r9
 8000afc:	4651      	mov	r1, sl
 8000afe:	9103      	str	r1, [sp, #12]
 8000b00:	0c29      	lsrs	r1, r5, #16
 8000b02:	9104      	str	r1, [sp, #16]
 8000b04:	4641      	mov	r1, r8
 8000b06:	0409      	lsls	r1, r1, #16
 8000b08:	042d      	lsls	r5, r5, #16
 8000b0a:	0c09      	lsrs	r1, r1, #16
 8000b0c:	4688      	mov	r8, r1
 8000b0e:	0029      	movs	r1, r5
 8000b10:	0c25      	lsrs	r5, r4, #16
 8000b12:	0424      	lsls	r4, r4, #16
 8000b14:	4441      	add	r1, r8
 8000b16:	0c24      	lsrs	r4, r4, #16
 8000b18:	9105      	str	r1, [sp, #20]
 8000b1a:	0021      	movs	r1, r4
 8000b1c:	4341      	muls	r1, r0
 8000b1e:	4688      	mov	r8, r1
 8000b20:	0021      	movs	r1, r4
 8000b22:	4379      	muls	r1, r7
 8000b24:	468a      	mov	sl, r1
 8000b26:	4368      	muls	r0, r5
 8000b28:	4641      	mov	r1, r8
 8000b2a:	4450      	add	r0, sl
 8000b2c:	4681      	mov	r9, r0
 8000b2e:	0c08      	lsrs	r0, r1, #16
 8000b30:	4448      	add	r0, r9
 8000b32:	436f      	muls	r7, r5
 8000b34:	4582      	cmp	sl, r0
 8000b36:	d903      	bls.n	8000b40 <__aeabi_dmul+0x278>
 8000b38:	2180      	movs	r1, #128	; 0x80
 8000b3a:	0249      	lsls	r1, r1, #9
 8000b3c:	4689      	mov	r9, r1
 8000b3e:	444f      	add	r7, r9
 8000b40:	0c01      	lsrs	r1, r0, #16
 8000b42:	4689      	mov	r9, r1
 8000b44:	0039      	movs	r1, r7
 8000b46:	4449      	add	r1, r9
 8000b48:	9102      	str	r1, [sp, #8]
 8000b4a:	4641      	mov	r1, r8
 8000b4c:	040f      	lsls	r7, r1, #16
 8000b4e:	9904      	ldr	r1, [sp, #16]
 8000b50:	0c3f      	lsrs	r7, r7, #16
 8000b52:	4688      	mov	r8, r1
 8000b54:	0400      	lsls	r0, r0, #16
 8000b56:	19c0      	adds	r0, r0, r7
 8000b58:	4480      	add	r8, r0
 8000b5a:	4641      	mov	r1, r8
 8000b5c:	9104      	str	r1, [sp, #16]
 8000b5e:	4659      	mov	r1, fp
 8000b60:	0c0f      	lsrs	r7, r1, #16
 8000b62:	0409      	lsls	r1, r1, #16
 8000b64:	0c09      	lsrs	r1, r1, #16
 8000b66:	4688      	mov	r8, r1
 8000b68:	4359      	muls	r1, r3
 8000b6a:	468a      	mov	sl, r1
 8000b6c:	0039      	movs	r1, r7
 8000b6e:	4351      	muls	r1, r2
 8000b70:	4689      	mov	r9, r1
 8000b72:	4641      	mov	r1, r8
 8000b74:	434a      	muls	r2, r1
 8000b76:	4651      	mov	r1, sl
 8000b78:	0c09      	lsrs	r1, r1, #16
 8000b7a:	468b      	mov	fp, r1
 8000b7c:	437b      	muls	r3, r7
 8000b7e:	18d2      	adds	r2, r2, r3
 8000b80:	445a      	add	r2, fp
 8000b82:	4293      	cmp	r3, r2
 8000b84:	d903      	bls.n	8000b8e <__aeabi_dmul+0x2c6>
 8000b86:	2380      	movs	r3, #128	; 0x80
 8000b88:	025b      	lsls	r3, r3, #9
 8000b8a:	469b      	mov	fp, r3
 8000b8c:	44d9      	add	r9, fp
 8000b8e:	4651      	mov	r1, sl
 8000b90:	0409      	lsls	r1, r1, #16
 8000b92:	0c09      	lsrs	r1, r1, #16
 8000b94:	468a      	mov	sl, r1
 8000b96:	4641      	mov	r1, r8
 8000b98:	4361      	muls	r1, r4
 8000b9a:	437c      	muls	r4, r7
 8000b9c:	0c13      	lsrs	r3, r2, #16
 8000b9e:	0412      	lsls	r2, r2, #16
 8000ba0:	444b      	add	r3, r9
 8000ba2:	4452      	add	r2, sl
 8000ba4:	46a1      	mov	r9, r4
 8000ba6:	468a      	mov	sl, r1
 8000ba8:	003c      	movs	r4, r7
 8000baa:	4641      	mov	r1, r8
 8000bac:	436c      	muls	r4, r5
 8000bae:	434d      	muls	r5, r1
 8000bb0:	4651      	mov	r1, sl
 8000bb2:	444d      	add	r5, r9
 8000bb4:	0c0f      	lsrs	r7, r1, #16
 8000bb6:	197d      	adds	r5, r7, r5
 8000bb8:	45a9      	cmp	r9, r5
 8000bba:	d903      	bls.n	8000bc4 <__aeabi_dmul+0x2fc>
 8000bbc:	2180      	movs	r1, #128	; 0x80
 8000bbe:	0249      	lsls	r1, r1, #9
 8000bc0:	4688      	mov	r8, r1
 8000bc2:	4444      	add	r4, r8
 8000bc4:	9f04      	ldr	r7, [sp, #16]
 8000bc6:	9903      	ldr	r1, [sp, #12]
 8000bc8:	46b8      	mov	r8, r7
 8000bca:	4441      	add	r1, r8
 8000bcc:	468b      	mov	fp, r1
 8000bce:	4583      	cmp	fp, r0
 8000bd0:	4180      	sbcs	r0, r0
 8000bd2:	4241      	negs	r1, r0
 8000bd4:	4688      	mov	r8, r1
 8000bd6:	4651      	mov	r1, sl
 8000bd8:	0408      	lsls	r0, r1, #16
 8000bda:	042f      	lsls	r7, r5, #16
 8000bdc:	0c00      	lsrs	r0, r0, #16
 8000bde:	183f      	adds	r7, r7, r0
 8000be0:	4658      	mov	r0, fp
 8000be2:	9902      	ldr	r1, [sp, #8]
 8000be4:	1810      	adds	r0, r2, r0
 8000be6:	4689      	mov	r9, r1
 8000be8:	4290      	cmp	r0, r2
 8000bea:	4192      	sbcs	r2, r2
 8000bec:	444f      	add	r7, r9
 8000bee:	46ba      	mov	sl, r7
 8000bf0:	4252      	negs	r2, r2
 8000bf2:	4699      	mov	r9, r3
 8000bf4:	4693      	mov	fp, r2
 8000bf6:	44c2      	add	sl, r8
 8000bf8:	44d1      	add	r9, sl
 8000bfa:	44cb      	add	fp, r9
 8000bfc:	428f      	cmp	r7, r1
 8000bfe:	41bf      	sbcs	r7, r7
 8000c00:	45c2      	cmp	sl, r8
 8000c02:	4189      	sbcs	r1, r1
 8000c04:	4599      	cmp	r9, r3
 8000c06:	419b      	sbcs	r3, r3
 8000c08:	4593      	cmp	fp, r2
 8000c0a:	4192      	sbcs	r2, r2
 8000c0c:	427f      	negs	r7, r7
 8000c0e:	4249      	negs	r1, r1
 8000c10:	0c2d      	lsrs	r5, r5, #16
 8000c12:	4252      	negs	r2, r2
 8000c14:	430f      	orrs	r7, r1
 8000c16:	425b      	negs	r3, r3
 8000c18:	4313      	orrs	r3, r2
 8000c1a:	197f      	adds	r7, r7, r5
 8000c1c:	18ff      	adds	r7, r7, r3
 8000c1e:	465b      	mov	r3, fp
 8000c20:	193c      	adds	r4, r7, r4
 8000c22:	0ddb      	lsrs	r3, r3, #23
 8000c24:	9a05      	ldr	r2, [sp, #20]
 8000c26:	0264      	lsls	r4, r4, #9
 8000c28:	431c      	orrs	r4, r3
 8000c2a:	0243      	lsls	r3, r0, #9
 8000c2c:	4313      	orrs	r3, r2
 8000c2e:	1e5d      	subs	r5, r3, #1
 8000c30:	41ab      	sbcs	r3, r5
 8000c32:	465a      	mov	r2, fp
 8000c34:	0dc0      	lsrs	r0, r0, #23
 8000c36:	4303      	orrs	r3, r0
 8000c38:	0252      	lsls	r2, r2, #9
 8000c3a:	4313      	orrs	r3, r2
 8000c3c:	01e2      	lsls	r2, r4, #7
 8000c3e:	d556      	bpl.n	8000cee <__aeabi_dmul+0x426>
 8000c40:	2001      	movs	r0, #1
 8000c42:	085a      	lsrs	r2, r3, #1
 8000c44:	4003      	ands	r3, r0
 8000c46:	4313      	orrs	r3, r2
 8000c48:	07e2      	lsls	r2, r4, #31
 8000c4a:	4313      	orrs	r3, r2
 8000c4c:	0864      	lsrs	r4, r4, #1
 8000c4e:	485a      	ldr	r0, [pc, #360]	; (8000db8 <__aeabi_dmul+0x4f0>)
 8000c50:	4460      	add	r0, ip
 8000c52:	2800      	cmp	r0, #0
 8000c54:	dd4d      	ble.n	8000cf2 <__aeabi_dmul+0x42a>
 8000c56:	075a      	lsls	r2, r3, #29
 8000c58:	d009      	beq.n	8000c6e <__aeabi_dmul+0x3a6>
 8000c5a:	220f      	movs	r2, #15
 8000c5c:	401a      	ands	r2, r3
 8000c5e:	2a04      	cmp	r2, #4
 8000c60:	d005      	beq.n	8000c6e <__aeabi_dmul+0x3a6>
 8000c62:	1d1a      	adds	r2, r3, #4
 8000c64:	429a      	cmp	r2, r3
 8000c66:	419b      	sbcs	r3, r3
 8000c68:	425b      	negs	r3, r3
 8000c6a:	18e4      	adds	r4, r4, r3
 8000c6c:	0013      	movs	r3, r2
 8000c6e:	01e2      	lsls	r2, r4, #7
 8000c70:	d504      	bpl.n	8000c7c <__aeabi_dmul+0x3b4>
 8000c72:	2080      	movs	r0, #128	; 0x80
 8000c74:	4a51      	ldr	r2, [pc, #324]	; (8000dbc <__aeabi_dmul+0x4f4>)
 8000c76:	00c0      	lsls	r0, r0, #3
 8000c78:	4014      	ands	r4, r2
 8000c7a:	4460      	add	r0, ip
 8000c7c:	4a50      	ldr	r2, [pc, #320]	; (8000dc0 <__aeabi_dmul+0x4f8>)
 8000c7e:	4290      	cmp	r0, r2
 8000c80:	dd00      	ble.n	8000c84 <__aeabi_dmul+0x3bc>
 8000c82:	e6e3      	b.n	8000a4c <__aeabi_dmul+0x184>
 8000c84:	2501      	movs	r5, #1
 8000c86:	08db      	lsrs	r3, r3, #3
 8000c88:	0762      	lsls	r2, r4, #29
 8000c8a:	431a      	orrs	r2, r3
 8000c8c:	0264      	lsls	r4, r4, #9
 8000c8e:	9b01      	ldr	r3, [sp, #4]
 8000c90:	4691      	mov	r9, r2
 8000c92:	0b22      	lsrs	r2, r4, #12
 8000c94:	0544      	lsls	r4, r0, #21
 8000c96:	0d64      	lsrs	r4, r4, #21
 8000c98:	401d      	ands	r5, r3
 8000c9a:	e67c      	b.n	8000996 <__aeabi_dmul+0xce>
 8000c9c:	2280      	movs	r2, #128	; 0x80
 8000c9e:	4659      	mov	r1, fp
 8000ca0:	0312      	lsls	r2, r2, #12
 8000ca2:	4211      	tst	r1, r2
 8000ca4:	d008      	beq.n	8000cb8 <__aeabi_dmul+0x3f0>
 8000ca6:	4214      	tst	r4, r2
 8000ca8:	d106      	bne.n	8000cb8 <__aeabi_dmul+0x3f0>
 8000caa:	4322      	orrs	r2, r4
 8000cac:	0312      	lsls	r2, r2, #12
 8000cae:	0b12      	lsrs	r2, r2, #12
 8000cb0:	4645      	mov	r5, r8
 8000cb2:	4699      	mov	r9, r3
 8000cb4:	4c43      	ldr	r4, [pc, #268]	; (8000dc4 <__aeabi_dmul+0x4fc>)
 8000cb6:	e66e      	b.n	8000996 <__aeabi_dmul+0xce>
 8000cb8:	465b      	mov	r3, fp
 8000cba:	431a      	orrs	r2, r3
 8000cbc:	0312      	lsls	r2, r2, #12
 8000cbe:	0b12      	lsrs	r2, r2, #12
 8000cc0:	4c40      	ldr	r4, [pc, #256]	; (8000dc4 <__aeabi_dmul+0x4fc>)
 8000cc2:	e668      	b.n	8000996 <__aeabi_dmul+0xce>
 8000cc4:	0003      	movs	r3, r0
 8000cc6:	4654      	mov	r4, sl
 8000cc8:	3b28      	subs	r3, #40	; 0x28
 8000cca:	409c      	lsls	r4, r3
 8000ccc:	2300      	movs	r3, #0
 8000cce:	e6b9      	b.n	8000a44 <__aeabi_dmul+0x17c>
 8000cd0:	f000 f946 	bl	8000f60 <__clzsi2>
 8000cd4:	3020      	adds	r0, #32
 8000cd6:	e6a6      	b.n	8000a26 <__aeabi_dmul+0x15e>
 8000cd8:	0003      	movs	r3, r0
 8000cda:	3b28      	subs	r3, #40	; 0x28
 8000cdc:	409f      	lsls	r7, r3
 8000cde:	2300      	movs	r3, #0
 8000ce0:	46bb      	mov	fp, r7
 8000ce2:	4699      	mov	r9, r3
 8000ce4:	e68a      	b.n	80009fc <__aeabi_dmul+0x134>
 8000ce6:	f000 f93b 	bl	8000f60 <__clzsi2>
 8000cea:	3020      	adds	r0, #32
 8000cec:	e674      	b.n	80009d8 <__aeabi_dmul+0x110>
 8000cee:	46b4      	mov	ip, r6
 8000cf0:	e7ad      	b.n	8000c4e <__aeabi_dmul+0x386>
 8000cf2:	2501      	movs	r5, #1
 8000cf4:	1a2a      	subs	r2, r5, r0
 8000cf6:	2a38      	cmp	r2, #56	; 0x38
 8000cf8:	dd06      	ble.n	8000d08 <__aeabi_dmul+0x440>
 8000cfa:	9b01      	ldr	r3, [sp, #4]
 8000cfc:	2400      	movs	r4, #0
 8000cfe:	401d      	ands	r5, r3
 8000d00:	2300      	movs	r3, #0
 8000d02:	2200      	movs	r2, #0
 8000d04:	4699      	mov	r9, r3
 8000d06:	e646      	b.n	8000996 <__aeabi_dmul+0xce>
 8000d08:	2a1f      	cmp	r2, #31
 8000d0a:	dc21      	bgt.n	8000d50 <__aeabi_dmul+0x488>
 8000d0c:	2520      	movs	r5, #32
 8000d0e:	0020      	movs	r0, r4
 8000d10:	1aad      	subs	r5, r5, r2
 8000d12:	001e      	movs	r6, r3
 8000d14:	40ab      	lsls	r3, r5
 8000d16:	40a8      	lsls	r0, r5
 8000d18:	40d6      	lsrs	r6, r2
 8000d1a:	1e5d      	subs	r5, r3, #1
 8000d1c:	41ab      	sbcs	r3, r5
 8000d1e:	4330      	orrs	r0, r6
 8000d20:	4318      	orrs	r0, r3
 8000d22:	40d4      	lsrs	r4, r2
 8000d24:	0743      	lsls	r3, r0, #29
 8000d26:	d009      	beq.n	8000d3c <__aeabi_dmul+0x474>
 8000d28:	230f      	movs	r3, #15
 8000d2a:	4003      	ands	r3, r0
 8000d2c:	2b04      	cmp	r3, #4
 8000d2e:	d005      	beq.n	8000d3c <__aeabi_dmul+0x474>
 8000d30:	0003      	movs	r3, r0
 8000d32:	1d18      	adds	r0, r3, #4
 8000d34:	4298      	cmp	r0, r3
 8000d36:	419b      	sbcs	r3, r3
 8000d38:	425b      	negs	r3, r3
 8000d3a:	18e4      	adds	r4, r4, r3
 8000d3c:	0223      	lsls	r3, r4, #8
 8000d3e:	d521      	bpl.n	8000d84 <__aeabi_dmul+0x4bc>
 8000d40:	2501      	movs	r5, #1
 8000d42:	9b01      	ldr	r3, [sp, #4]
 8000d44:	2401      	movs	r4, #1
 8000d46:	401d      	ands	r5, r3
 8000d48:	2300      	movs	r3, #0
 8000d4a:	2200      	movs	r2, #0
 8000d4c:	4699      	mov	r9, r3
 8000d4e:	e622      	b.n	8000996 <__aeabi_dmul+0xce>
 8000d50:	251f      	movs	r5, #31
 8000d52:	0021      	movs	r1, r4
 8000d54:	426d      	negs	r5, r5
 8000d56:	1a28      	subs	r0, r5, r0
 8000d58:	40c1      	lsrs	r1, r0
 8000d5a:	0008      	movs	r0, r1
 8000d5c:	2a20      	cmp	r2, #32
 8000d5e:	d01d      	beq.n	8000d9c <__aeabi_dmul+0x4d4>
 8000d60:	355f      	adds	r5, #95	; 0x5f
 8000d62:	1aaa      	subs	r2, r5, r2
 8000d64:	4094      	lsls	r4, r2
 8000d66:	4323      	orrs	r3, r4
 8000d68:	1e5c      	subs	r4, r3, #1
 8000d6a:	41a3      	sbcs	r3, r4
 8000d6c:	2507      	movs	r5, #7
 8000d6e:	4303      	orrs	r3, r0
 8000d70:	401d      	ands	r5, r3
 8000d72:	2200      	movs	r2, #0
 8000d74:	2d00      	cmp	r5, #0
 8000d76:	d009      	beq.n	8000d8c <__aeabi_dmul+0x4c4>
 8000d78:	220f      	movs	r2, #15
 8000d7a:	2400      	movs	r4, #0
 8000d7c:	401a      	ands	r2, r3
 8000d7e:	0018      	movs	r0, r3
 8000d80:	2a04      	cmp	r2, #4
 8000d82:	d1d6      	bne.n	8000d32 <__aeabi_dmul+0x46a>
 8000d84:	0003      	movs	r3, r0
 8000d86:	0765      	lsls	r5, r4, #29
 8000d88:	0264      	lsls	r4, r4, #9
 8000d8a:	0b22      	lsrs	r2, r4, #12
 8000d8c:	08db      	lsrs	r3, r3, #3
 8000d8e:	432b      	orrs	r3, r5
 8000d90:	2501      	movs	r5, #1
 8000d92:	4699      	mov	r9, r3
 8000d94:	9b01      	ldr	r3, [sp, #4]
 8000d96:	2400      	movs	r4, #0
 8000d98:	401d      	ands	r5, r3
 8000d9a:	e5fc      	b.n	8000996 <__aeabi_dmul+0xce>
 8000d9c:	2400      	movs	r4, #0
 8000d9e:	e7e2      	b.n	8000d66 <__aeabi_dmul+0x49e>
 8000da0:	2280      	movs	r2, #128	; 0x80
 8000da2:	2501      	movs	r5, #1
 8000da4:	0312      	lsls	r2, r2, #12
 8000da6:	4322      	orrs	r2, r4
 8000da8:	9901      	ldr	r1, [sp, #4]
 8000daa:	0312      	lsls	r2, r2, #12
 8000dac:	0b12      	lsrs	r2, r2, #12
 8000dae:	400d      	ands	r5, r1
 8000db0:	4699      	mov	r9, r3
 8000db2:	4c04      	ldr	r4, [pc, #16]	; (8000dc4 <__aeabi_dmul+0x4fc>)
 8000db4:	e5ef      	b.n	8000996 <__aeabi_dmul+0xce>
 8000db6:	46c0      	nop			; (mov r8, r8)
 8000db8:	000003ff 	.word	0x000003ff
 8000dbc:	feffffff 	.word	0xfeffffff
 8000dc0:	000007fe 	.word	0x000007fe
 8000dc4:	000007ff 	.word	0x000007ff

08000dc8 <__aeabi_i2d>:
 8000dc8:	b570      	push	{r4, r5, r6, lr}
 8000dca:	2800      	cmp	r0, #0
 8000dcc:	d030      	beq.n	8000e30 <__aeabi_i2d+0x68>
 8000dce:	17c3      	asrs	r3, r0, #31
 8000dd0:	18c4      	adds	r4, r0, r3
 8000dd2:	405c      	eors	r4, r3
 8000dd4:	0fc5      	lsrs	r5, r0, #31
 8000dd6:	0020      	movs	r0, r4
 8000dd8:	f000 f8c2 	bl	8000f60 <__clzsi2>
 8000ddc:	4b17      	ldr	r3, [pc, #92]	; (8000e3c <__aeabi_i2d+0x74>)
 8000dde:	4a18      	ldr	r2, [pc, #96]	; (8000e40 <__aeabi_i2d+0x78>)
 8000de0:	1a1b      	subs	r3, r3, r0
 8000de2:	1ad2      	subs	r2, r2, r3
 8000de4:	2a1f      	cmp	r2, #31
 8000de6:	dd18      	ble.n	8000e1a <__aeabi_i2d+0x52>
 8000de8:	4a16      	ldr	r2, [pc, #88]	; (8000e44 <__aeabi_i2d+0x7c>)
 8000dea:	1ad2      	subs	r2, r2, r3
 8000dec:	4094      	lsls	r4, r2
 8000dee:	2200      	movs	r2, #0
 8000df0:	0324      	lsls	r4, r4, #12
 8000df2:	055b      	lsls	r3, r3, #21
 8000df4:	0b24      	lsrs	r4, r4, #12
 8000df6:	0d5b      	lsrs	r3, r3, #21
 8000df8:	2100      	movs	r1, #0
 8000dfa:	0010      	movs	r0, r2
 8000dfc:	0324      	lsls	r4, r4, #12
 8000dfe:	0d0a      	lsrs	r2, r1, #20
 8000e00:	0b24      	lsrs	r4, r4, #12
 8000e02:	0512      	lsls	r2, r2, #20
 8000e04:	4322      	orrs	r2, r4
 8000e06:	4c10      	ldr	r4, [pc, #64]	; (8000e48 <__aeabi_i2d+0x80>)
 8000e08:	051b      	lsls	r3, r3, #20
 8000e0a:	4022      	ands	r2, r4
 8000e0c:	4313      	orrs	r3, r2
 8000e0e:	005b      	lsls	r3, r3, #1
 8000e10:	07ed      	lsls	r5, r5, #31
 8000e12:	085b      	lsrs	r3, r3, #1
 8000e14:	432b      	orrs	r3, r5
 8000e16:	0019      	movs	r1, r3
 8000e18:	bd70      	pop	{r4, r5, r6, pc}
 8000e1a:	0021      	movs	r1, r4
 8000e1c:	4091      	lsls	r1, r2
 8000e1e:	000a      	movs	r2, r1
 8000e20:	210b      	movs	r1, #11
 8000e22:	1a08      	subs	r0, r1, r0
 8000e24:	40c4      	lsrs	r4, r0
 8000e26:	055b      	lsls	r3, r3, #21
 8000e28:	0324      	lsls	r4, r4, #12
 8000e2a:	0b24      	lsrs	r4, r4, #12
 8000e2c:	0d5b      	lsrs	r3, r3, #21
 8000e2e:	e7e3      	b.n	8000df8 <__aeabi_i2d+0x30>
 8000e30:	2500      	movs	r5, #0
 8000e32:	2300      	movs	r3, #0
 8000e34:	2400      	movs	r4, #0
 8000e36:	2200      	movs	r2, #0
 8000e38:	e7de      	b.n	8000df8 <__aeabi_i2d+0x30>
 8000e3a:	46c0      	nop			; (mov r8, r8)
 8000e3c:	0000041e 	.word	0x0000041e
 8000e40:	00000433 	.word	0x00000433
 8000e44:	00000413 	.word	0x00000413
 8000e48:	800fffff 	.word	0x800fffff

08000e4c <__aeabi_d2f>:
 8000e4c:	b5f0      	push	{r4, r5, r6, r7, lr}
 8000e4e:	004c      	lsls	r4, r1, #1
 8000e50:	0d64      	lsrs	r4, r4, #21
 8000e52:	030b      	lsls	r3, r1, #12
 8000e54:	1c62      	adds	r2, r4, #1
 8000e56:	0f45      	lsrs	r5, r0, #29
 8000e58:	0a5b      	lsrs	r3, r3, #9
 8000e5a:	0552      	lsls	r2, r2, #21
 8000e5c:	432b      	orrs	r3, r5
 8000e5e:	0fc9      	lsrs	r1, r1, #31
 8000e60:	00c5      	lsls	r5, r0, #3
 8000e62:	0d52      	lsrs	r2, r2, #21
 8000e64:	2a01      	cmp	r2, #1
 8000e66:	dd28      	ble.n	8000eba <__aeabi_d2f+0x6e>
 8000e68:	4a3a      	ldr	r2, [pc, #232]	; (8000f54 <__aeabi_d2f+0x108>)
 8000e6a:	18a6      	adds	r6, r4, r2
 8000e6c:	2efe      	cmp	r6, #254	; 0xfe
 8000e6e:	dc1b      	bgt.n	8000ea8 <__aeabi_d2f+0x5c>
 8000e70:	2e00      	cmp	r6, #0
 8000e72:	dd3e      	ble.n	8000ef2 <__aeabi_d2f+0xa6>
 8000e74:	0180      	lsls	r0, r0, #6
 8000e76:	0002      	movs	r2, r0
 8000e78:	1e50      	subs	r0, r2, #1
 8000e7a:	4182      	sbcs	r2, r0
 8000e7c:	0f6d      	lsrs	r5, r5, #29
 8000e7e:	432a      	orrs	r2, r5
 8000e80:	00db      	lsls	r3, r3, #3
 8000e82:	4313      	orrs	r3, r2
 8000e84:	075a      	lsls	r2, r3, #29
 8000e86:	d004      	beq.n	8000e92 <__aeabi_d2f+0x46>
 8000e88:	220f      	movs	r2, #15
 8000e8a:	401a      	ands	r2, r3
 8000e8c:	2a04      	cmp	r2, #4
 8000e8e:	d000      	beq.n	8000e92 <__aeabi_d2f+0x46>
 8000e90:	3304      	adds	r3, #4
 8000e92:	2280      	movs	r2, #128	; 0x80
 8000e94:	04d2      	lsls	r2, r2, #19
 8000e96:	401a      	ands	r2, r3
 8000e98:	d05a      	beq.n	8000f50 <__aeabi_d2f+0x104>
 8000e9a:	3601      	adds	r6, #1
 8000e9c:	2eff      	cmp	r6, #255	; 0xff
 8000e9e:	d003      	beq.n	8000ea8 <__aeabi_d2f+0x5c>
 8000ea0:	019b      	lsls	r3, r3, #6
 8000ea2:	0a5b      	lsrs	r3, r3, #9
 8000ea4:	b2f4      	uxtb	r4, r6
 8000ea6:	e001      	b.n	8000eac <__aeabi_d2f+0x60>
 8000ea8:	24ff      	movs	r4, #255	; 0xff
 8000eaa:	2300      	movs	r3, #0
 8000eac:	0258      	lsls	r0, r3, #9
 8000eae:	05e4      	lsls	r4, r4, #23
 8000eb0:	0a40      	lsrs	r0, r0, #9
 8000eb2:	07c9      	lsls	r1, r1, #31
 8000eb4:	4320      	orrs	r0, r4
 8000eb6:	4308      	orrs	r0, r1
 8000eb8:	bdf0      	pop	{r4, r5, r6, r7, pc}
 8000eba:	2c00      	cmp	r4, #0
 8000ebc:	d007      	beq.n	8000ece <__aeabi_d2f+0x82>
 8000ebe:	431d      	orrs	r5, r3
 8000ec0:	d0f2      	beq.n	8000ea8 <__aeabi_d2f+0x5c>
 8000ec2:	2080      	movs	r0, #128	; 0x80
 8000ec4:	00db      	lsls	r3, r3, #3
 8000ec6:	0480      	lsls	r0, r0, #18
 8000ec8:	4303      	orrs	r3, r0
 8000eca:	26ff      	movs	r6, #255	; 0xff
 8000ecc:	e7da      	b.n	8000e84 <__aeabi_d2f+0x38>
 8000ece:	432b      	orrs	r3, r5
 8000ed0:	d003      	beq.n	8000eda <__aeabi_d2f+0x8e>
 8000ed2:	2305      	movs	r3, #5
 8000ed4:	08db      	lsrs	r3, r3, #3
 8000ed6:	2cff      	cmp	r4, #255	; 0xff
 8000ed8:	d003      	beq.n	8000ee2 <__aeabi_d2f+0x96>
 8000eda:	025b      	lsls	r3, r3, #9
 8000edc:	0a5b      	lsrs	r3, r3, #9
 8000ede:	b2e4      	uxtb	r4, r4
 8000ee0:	e7e4      	b.n	8000eac <__aeabi_d2f+0x60>
 8000ee2:	2b00      	cmp	r3, #0
 8000ee4:	d032      	beq.n	8000f4c <__aeabi_d2f+0x100>
 8000ee6:	2080      	movs	r0, #128	; 0x80
 8000ee8:	03c0      	lsls	r0, r0, #15
 8000eea:	4303      	orrs	r3, r0
 8000eec:	025b      	lsls	r3, r3, #9
 8000eee:	0a5b      	lsrs	r3, r3, #9
 8000ef0:	e7dc      	b.n	8000eac <__aeabi_d2f+0x60>
 8000ef2:	0032      	movs	r2, r6
 8000ef4:	3217      	adds	r2, #23
 8000ef6:	db14      	blt.n	8000f22 <__aeabi_d2f+0xd6>
 8000ef8:	2280      	movs	r2, #128	; 0x80
 8000efa:	271e      	movs	r7, #30
 8000efc:	0412      	lsls	r2, r2, #16
 8000efe:	4313      	orrs	r3, r2
 8000f00:	1bbf      	subs	r7, r7, r6
 8000f02:	2f1f      	cmp	r7, #31
 8000f04:	dc0f      	bgt.n	8000f26 <__aeabi_d2f+0xda>
 8000f06:	4a14      	ldr	r2, [pc, #80]	; (8000f58 <__aeabi_d2f+0x10c>)
 8000f08:	4694      	mov	ip, r2
 8000f0a:	4464      	add	r4, ip
 8000f0c:	002a      	movs	r2, r5
 8000f0e:	40a5      	lsls	r5, r4
 8000f10:	002e      	movs	r6, r5
 8000f12:	40a3      	lsls	r3, r4
 8000f14:	1e75      	subs	r5, r6, #1
 8000f16:	41ae      	sbcs	r6, r5
 8000f18:	40fa      	lsrs	r2, r7
 8000f1a:	4333      	orrs	r3, r6
 8000f1c:	4313      	orrs	r3, r2
 8000f1e:	2600      	movs	r6, #0
 8000f20:	e7b0      	b.n	8000e84 <__aeabi_d2f+0x38>
 8000f22:	2400      	movs	r4, #0
 8000f24:	e7d5      	b.n	8000ed2 <__aeabi_d2f+0x86>
 8000f26:	2202      	movs	r2, #2
 8000f28:	4252      	negs	r2, r2
 8000f2a:	1b96      	subs	r6, r2, r6
 8000f2c:	001a      	movs	r2, r3
 8000f2e:	40f2      	lsrs	r2, r6
 8000f30:	2f20      	cmp	r7, #32
 8000f32:	d009      	beq.n	8000f48 <__aeabi_d2f+0xfc>
 8000f34:	4809      	ldr	r0, [pc, #36]	; (8000f5c <__aeabi_d2f+0x110>)
 8000f36:	4684      	mov	ip, r0
 8000f38:	4464      	add	r4, ip
 8000f3a:	40a3      	lsls	r3, r4
 8000f3c:	432b      	orrs	r3, r5
 8000f3e:	1e5d      	subs	r5, r3, #1
 8000f40:	41ab      	sbcs	r3, r5
 8000f42:	2600      	movs	r6, #0
 8000f44:	4313      	orrs	r3, r2
 8000f46:	e79d      	b.n	8000e84 <__aeabi_d2f+0x38>
 8000f48:	2300      	movs	r3, #0
 8000f4a:	e7f7      	b.n	8000f3c <__aeabi_d2f+0xf0>
 8000f4c:	2300      	movs	r3, #0
 8000f4e:	e7ad      	b.n	8000eac <__aeabi_d2f+0x60>
 8000f50:	0034      	movs	r4, r6
 8000f52:	e7bf      	b.n	8000ed4 <__aeabi_d2f+0x88>
 8000f54:	fffffc80 	.word	0xfffffc80
 8000f58:	fffffc82 	.word	0xfffffc82
 8000f5c:	fffffca2 	.word	0xfffffca2

08000f60 <__clzsi2>:
 8000f60:	211c      	movs	r1, #28
 8000f62:	2301      	movs	r3, #1
 8000f64:	041b      	lsls	r3, r3, #16
 8000f66:	4298      	cmp	r0, r3
 8000f68:	d301      	bcc.n	8000f6e <__clzsi2+0xe>
 8000f6a:	0c00      	lsrs	r0, r0, #16
 8000f6c:	3910      	subs	r1, #16
 8000f6e:	0a1b      	lsrs	r3, r3, #8
 8000f70:	4298      	cmp	r0, r3
 8000f72:	d301      	bcc.n	8000f78 <__clzsi2+0x18>
 8000f74:	0a00      	lsrs	r0, r0, #8
 8000f76:	3908      	subs	r1, #8
 8000f78:	091b      	lsrs	r3, r3, #4
 8000f7a:	4298      	cmp	r0, r3
 8000f7c:	d301      	bcc.n	8000f82 <__clzsi2+0x22>
 8000f7e:	0900      	lsrs	r0, r0, #4
 8000f80:	3904      	subs	r1, #4
 8000f82:	a202      	add	r2, pc, #8	; (adr r2, 8000f8c <__clzsi2+0x2c>)
 8000f84:	5c10      	ldrb	r0, [r2, r0]
 8000f86:	1840      	adds	r0, r0, r1
 8000f88:	4770      	bx	lr
 8000f8a:	46c0      	nop			; (mov r8, r8)
 8000f8c:	02020304 	.word	0x02020304
 8000f90:	01010101 	.word	0x01010101
	...

08000f9c <NVIC_EnableIRQ>:
  \brief   Enable External Interrupt
  \details Enables a device-specific interrupt in the NVIC interrupt controller.
  \param [in]      IRQn  External interrupt number. Value cannot be negative.
 */
__STATIC_INLINE void NVIC_EnableIRQ(IRQn_Type IRQn)
{
 8000f9c:	b580      	push	{r7, lr}
 8000f9e:	b082      	sub	sp, #8
 8000fa0:	af00      	add	r7, sp, #0
 8000fa2:	0002      	movs	r2, r0
 8000fa4:	1dfb      	adds	r3, r7, #7
 8000fa6:	701a      	strb	r2, [r3, #0]
  NVIC->ISER[0U] = (uint32_t)(1UL << (((uint32_t)(int32_t)IRQn) & 0x1FUL));
 8000fa8:	4b06      	ldr	r3, [pc, #24]	; (8000fc4 <NVIC_EnableIRQ+0x28>)
 8000faa:	1dfa      	adds	r2, r7, #7
 8000fac:	7812      	ldrb	r2, [r2, #0]
 8000fae:	0011      	movs	r1, r2
 8000fb0:	221f      	movs	r2, #31
 8000fb2:	400a      	ands	r2, r1
 8000fb4:	2101      	movs	r1, #1
 8000fb6:	4091      	lsls	r1, r2
 8000fb8:	000a      	movs	r2, r1
 8000fba:	601a      	str	r2, [r3, #0]
}
 8000fbc:	46c0      	nop			; (mov r8, r8)
 8000fbe:	46bd      	mov	sp, r7
 8000fc0:	b002      	add	sp, #8
 8000fc2:	bd80      	pop	{r7, pc}
 8000fc4:	e000e100 	.word	0xe000e100

08000fc8 <main>:
**  Abstract: main program
**
**===========================================================================
*/
int main(void)
{
 8000fc8:	b5b0      	push	{r4, r5, r7, lr}
 8000fca:	af00      	add	r7, sp, #0
	// Initialise Timer



	init_timer6();
 8000fcc:	f000 f97e 	bl	80012cc <init_timer6>
	init_LED();
 8000fd0:	f000 f9e2 	bl	8001398 <init_LED>
	init_buttons();
 8000fd4:	f000 f94c 	bl	8001270 <init_buttons>
	init_EXTI();
 8000fd8:	f000 f918 	bl	800120c <init_EXTI>
	init_pwm();
 8000fdc:	f000 f8a8 	bl	8001130 <init_pwm>
	init_adc();
 8000fe0:	f000 f860 	bl	80010a4 <init_adc>

	while(1)
	{
		run_adc();
 8000fe4:	f000 f844 	bl	8001070 <run_adc>
		duty = (ADC_value/(255.0) * 100.0); //((ADC_value / 255) * 100);
 8000fe8:	4b1c      	ldr	r3, [pc, #112]	; (800105c <main+0x94>)
 8000fea:	781b      	ldrb	r3, [r3, #0]
 8000fec:	0018      	movs	r0, r3
 8000fee:	f7ff feeb 	bl	8000dc8 <__aeabi_i2d>
 8000ff2:	2200      	movs	r2, #0
 8000ff4:	4b1a      	ldr	r3, [pc, #104]	; (8001060 <main+0x98>)
 8000ff6:	f7ff f933 	bl	8000260 <__aeabi_ddiv>
 8000ffa:	0003      	movs	r3, r0
 8000ffc:	000c      	movs	r4, r1
 8000ffe:	0018      	movs	r0, r3
 8001000:	0021      	movs	r1, r4
 8001002:	2200      	movs	r2, #0
 8001004:	4b17      	ldr	r3, [pc, #92]	; (8001064 <main+0x9c>)
 8001006:	f7ff fc5f 	bl	80008c8 <__aeabi_dmul>
 800100a:	0003      	movs	r3, r0
 800100c:	000c      	movs	r4, r1
 800100e:	0018      	movs	r0, r3
 8001010:	0021      	movs	r1, r4
 8001012:	f7ff ff1b 	bl	8000e4c <__aeabi_d2f>
 8001016:	1c02      	adds	r2, r0, #0
 8001018:	4b13      	ldr	r3, [pc, #76]	; (8001068 <main+0xa0>)
 800101a:	601a      	str	r2, [r3, #0]
		rduty = (int)duty;
 800101c:	4b12      	ldr	r3, [pc, #72]	; (8001068 <main+0xa0>)
 800101e:	681b      	ldr	r3, [r3, #0]
 8001020:	1c18      	adds	r0, r3, #0
 8001022:	f7ff f8fd 	bl	8000220 <__aeabi_f2iz>
 8001026:	0003      	movs	r3, r0
 8001028:	b2da      	uxtb	r2, r3
 800102a:	4b10      	ldr	r3, [pc, #64]	; (800106c <main+0xa4>)
 800102c:	701a      	strb	r2, [r3, #0]

		TIM2->CCR3 =  rduty* 40;
 800102e:	2380      	movs	r3, #128	; 0x80
 8001030:	05da      	lsls	r2, r3, #23
 8001032:	4b0e      	ldr	r3, [pc, #56]	; (800106c <main+0xa4>)
 8001034:	781b      	ldrb	r3, [r3, #0]
 8001036:	0019      	movs	r1, r3
 8001038:	000b      	movs	r3, r1
 800103a:	009b      	lsls	r3, r3, #2
 800103c:	185b      	adds	r3, r3, r1
 800103e:	00db      	lsls	r3, r3, #3
 8001040:	63d3      	str	r3, [r2, #60]	; 0x3c
		TIM2->CCR4 = (100-rduty) * 40;
 8001042:	2380      	movs	r3, #128	; 0x80
 8001044:	05da      	lsls	r2, r3, #23
 8001046:	4b09      	ldr	r3, [pc, #36]	; (800106c <main+0xa4>)
 8001048:	781b      	ldrb	r3, [r3, #0]
 800104a:	0019      	movs	r1, r3
 800104c:	2364      	movs	r3, #100	; 0x64
 800104e:	1a59      	subs	r1, r3, r1
 8001050:	000b      	movs	r3, r1
 8001052:	009b      	lsls	r3, r3, #2
 8001054:	185b      	adds	r3, r3, r1
 8001056:	00db      	lsls	r3, r3, #3
 8001058:	6413      	str	r3, [r2, #64]	; 0x40
		run_adc();
 800105a:	e7c3      	b.n	8000fe4 <main+0x1c>
 800105c:	2000001e 	.word	0x2000001e
 8001060:	406fe000 	.word	0x406fe000
 8001064:	40590000 	.word	0x40590000
 8001068:	20000020 	.word	0x20000020
 800106c:	20000024 	.word	0x20000024

08001070 <run_adc>:


// Function definitions

void run_adc(void)
{
 8001070:	b580      	push	{r7, lr}
 8001072:	af00      	add	r7, sp, #0
	ADC1 -> CR |= ADC_CR_ADSTART;
 8001074:	4b09      	ldr	r3, [pc, #36]	; (800109c <run_adc+0x2c>)
 8001076:	4a09      	ldr	r2, [pc, #36]	; (800109c <run_adc+0x2c>)
 8001078:	6892      	ldr	r2, [r2, #8]
 800107a:	2104      	movs	r1, #4
 800107c:	430a      	orrs	r2, r1
 800107e:	609a      	str	r2, [r3, #8]
	while((ADC1->ISR & ADC_ISR_EOC) == 0);
 8001080:	46c0      	nop			; (mov r8, r8)
 8001082:	4b06      	ldr	r3, [pc, #24]	; (800109c <run_adc+0x2c>)
 8001084:	681b      	ldr	r3, [r3, #0]
 8001086:	2204      	movs	r2, #4
 8001088:	4013      	ands	r3, r2
 800108a:	d0fa      	beq.n	8001082 <run_adc+0x12>

	ADC_value = ADC1->DR;
 800108c:	4b03      	ldr	r3, [pc, #12]	; (800109c <run_adc+0x2c>)
 800108e:	6c1b      	ldr	r3, [r3, #64]	; 0x40
 8001090:	b2da      	uxtb	r2, r3
 8001092:	4b03      	ldr	r3, [pc, #12]	; (80010a0 <run_adc+0x30>)
 8001094:	701a      	strb	r2, [r3, #0]
}
 8001096:	46c0      	nop			; (mov r8, r8)
 8001098:	46bd      	mov	sp, r7
 800109a:	bd80      	pop	{r7, pc}
 800109c:	40012400 	.word	0x40012400
 80010a0:	2000001e 	.word	0x2000001e

080010a4 <init_adc>:

void init_adc(void)
{
 80010a4:	b580      	push	{r7, lr}
 80010a6:	af00      	add	r7, sp, #0
	RCC -> AHBENR |= RCC_AHBENR_GPIOAEN;
 80010a8:	4b1e      	ldr	r3, [pc, #120]	; (8001124 <init_adc+0x80>)
 80010aa:	4a1e      	ldr	r2, [pc, #120]	; (8001124 <init_adc+0x80>)
 80010ac:	6952      	ldr	r2, [r2, #20]
 80010ae:	2180      	movs	r1, #128	; 0x80
 80010b0:	0289      	lsls	r1, r1, #10
 80010b2:	430a      	orrs	r2, r1
 80010b4:	615a      	str	r2, [r3, #20]
	GPIOA -> MODER |= GPIO_MODER_MODER5;
 80010b6:	2390      	movs	r3, #144	; 0x90
 80010b8:	05db      	lsls	r3, r3, #23
 80010ba:	2290      	movs	r2, #144	; 0x90
 80010bc:	05d2      	lsls	r2, r2, #23
 80010be:	6812      	ldr	r2, [r2, #0]
 80010c0:	21c0      	movs	r1, #192	; 0xc0
 80010c2:	0109      	lsls	r1, r1, #4
 80010c4:	430a      	orrs	r2, r1
 80010c6:	601a      	str	r2, [r3, #0]
	RCC -> APB2ENR |= RCC_APB2ENR_ADCEN;
 80010c8:	4b16      	ldr	r3, [pc, #88]	; (8001124 <init_adc+0x80>)
 80010ca:	4a16      	ldr	r2, [pc, #88]	; (8001124 <init_adc+0x80>)
 80010cc:	6992      	ldr	r2, [r2, #24]
 80010ce:	2180      	movs	r1, #128	; 0x80
 80010d0:	0089      	lsls	r1, r1, #2
 80010d2:	430a      	orrs	r2, r1
 80010d4:	619a      	str	r2, [r3, #24]

	ADC1 -> CFGR1 |= ADC_CFGR1_RES_1;
 80010d6:	4b14      	ldr	r3, [pc, #80]	; (8001128 <init_adc+0x84>)
 80010d8:	4a13      	ldr	r2, [pc, #76]	; (8001128 <init_adc+0x84>)
 80010da:	68d2      	ldr	r2, [r2, #12]
 80010dc:	2110      	movs	r1, #16
 80010de:	430a      	orrs	r2, r1
 80010e0:	60da      	str	r2, [r3, #12]
	ADC1 -> CFGR1 &= ~ADC_CFGR1_ALIGN;
 80010e2:	4b11      	ldr	r3, [pc, #68]	; (8001128 <init_adc+0x84>)
 80010e4:	4a10      	ldr	r2, [pc, #64]	; (8001128 <init_adc+0x84>)
 80010e6:	68d2      	ldr	r2, [r2, #12]
 80010e8:	2120      	movs	r1, #32
 80010ea:	438a      	bics	r2, r1
 80010ec:	60da      	str	r2, [r3, #12]
	ADC1 -> CFGR1 &= ~ADC_CFGR1_CONT;
 80010ee:	4b0e      	ldr	r3, [pc, #56]	; (8001128 <init_adc+0x84>)
 80010f0:	4a0d      	ldr	r2, [pc, #52]	; (8001128 <init_adc+0x84>)
 80010f2:	68d2      	ldr	r2, [r2, #12]
 80010f4:	490d      	ldr	r1, [pc, #52]	; (800112c <init_adc+0x88>)
 80010f6:	400a      	ands	r2, r1
 80010f8:	60da      	str	r2, [r3, #12]
	ADC1 -> CHSELR |= ADC_CHSELR_CHSEL5;
 80010fa:	4b0b      	ldr	r3, [pc, #44]	; (8001128 <init_adc+0x84>)
 80010fc:	4a0a      	ldr	r2, [pc, #40]	; (8001128 <init_adc+0x84>)
 80010fe:	6a92      	ldr	r2, [r2, #40]	; 0x28
 8001100:	2120      	movs	r1, #32
 8001102:	430a      	orrs	r2, r1
 8001104:	629a      	str	r2, [r3, #40]	; 0x28

	ADC1 -> CR |= ADC_CR_ADEN;
 8001106:	4b08      	ldr	r3, [pc, #32]	; (8001128 <init_adc+0x84>)
 8001108:	4a07      	ldr	r2, [pc, #28]	; (8001128 <init_adc+0x84>)
 800110a:	6892      	ldr	r2, [r2, #8]
 800110c:	2101      	movs	r1, #1
 800110e:	430a      	orrs	r2, r1
 8001110:	609a      	str	r2, [r3, #8]
	while((ADC1->ISR & ADC_ISR_ADRDY) == 0);
 8001112:	46c0      	nop			; (mov r8, r8)
 8001114:	4b04      	ldr	r3, [pc, #16]	; (8001128 <init_adc+0x84>)
 8001116:	681b      	ldr	r3, [r3, #0]
 8001118:	2201      	movs	r2, #1
 800111a:	4013      	ands	r3, r2
 800111c:	d0fa      	beq.n	8001114 <init_adc+0x70>
}
 800111e:	46c0      	nop			; (mov r8, r8)
 8001120:	46bd      	mov	sp, r7
 8001122:	bd80      	pop	{r7, pc}
 8001124:	40021000 	.word	0x40021000
 8001128:	40012400 	.word	0x40012400
 800112c:	ffffdfff 	.word	0xffffdfff

08001130 <init_pwm>:
	RCC->CFGR |= (uint32_t) (RCC_CFGR_SW_PLL);					   //COMPULSORY
	while ((RCC->CFGR & RCC_CFGR_SWS) != RCC_CFGR_SWS_PLL);		   //COMPULSORY
}

void init_pwm(void)
{
 8001130:	b580      	push	{r7, lr}
 8001132:	af00      	add	r7, sp, #0
	RCC->AHBENR |= RCC_AHBENR_GPIOBEN;
 8001134:	4b32      	ldr	r3, [pc, #200]	; (8001200 <init_pwm+0xd0>)
 8001136:	4a32      	ldr	r2, [pc, #200]	; (8001200 <init_pwm+0xd0>)
 8001138:	6952      	ldr	r2, [r2, #20]
 800113a:	2180      	movs	r1, #128	; 0x80
 800113c:	02c9      	lsls	r1, r1, #11
 800113e:	430a      	orrs	r2, r1
 8001140:	615a      	str	r2, [r3, #20]
	RCC->APB1ENR |= RCC_APB1ENR_TIM2EN;
 8001142:	4b2f      	ldr	r3, [pc, #188]	; (8001200 <init_pwm+0xd0>)
 8001144:	4a2e      	ldr	r2, [pc, #184]	; (8001200 <init_pwm+0xd0>)
 8001146:	69d2      	ldr	r2, [r2, #28]
 8001148:	2101      	movs	r1, #1
 800114a:	430a      	orrs	r2, r1
 800114c:	61da      	str	r2, [r3, #28]
	GPIOB->MODER |= GPIO_MODER_MODER10_1;
 800114e:	4b2d      	ldr	r3, [pc, #180]	; (8001204 <init_pwm+0xd4>)
 8001150:	4a2c      	ldr	r2, [pc, #176]	; (8001204 <init_pwm+0xd4>)
 8001152:	6812      	ldr	r2, [r2, #0]
 8001154:	2180      	movs	r1, #128	; 0x80
 8001156:	0389      	lsls	r1, r1, #14
 8001158:	430a      	orrs	r2, r1
 800115a:	601a      	str	r2, [r3, #0]
	GPIOB->MODER |= GPIO_MODER_MODER11_1;
 800115c:	4b29      	ldr	r3, [pc, #164]	; (8001204 <init_pwm+0xd4>)
 800115e:	4a29      	ldr	r2, [pc, #164]	; (8001204 <init_pwm+0xd4>)
 8001160:	6812      	ldr	r2, [r2, #0]
 8001162:	2180      	movs	r1, #128	; 0x80
 8001164:	0409      	lsls	r1, r1, #16
 8001166:	430a      	orrs	r2, r1
 8001168:	601a      	str	r2, [r3, #0]
	GPIOB->AFR[1] |= (2 << (4*(10-8)));
 800116a:	4b26      	ldr	r3, [pc, #152]	; (8001204 <init_pwm+0xd4>)
 800116c:	4a25      	ldr	r2, [pc, #148]	; (8001204 <init_pwm+0xd4>)
 800116e:	6a52      	ldr	r2, [r2, #36]	; 0x24
 8001170:	2180      	movs	r1, #128	; 0x80
 8001172:	0089      	lsls	r1, r1, #2
 8001174:	430a      	orrs	r2, r1
 8001176:	625a      	str	r2, [r3, #36]	; 0x24
	GPIOB->AFR[1] |= (2 << (4*(11-8)));
 8001178:	4b22      	ldr	r3, [pc, #136]	; (8001204 <init_pwm+0xd4>)
 800117a:	4a22      	ldr	r2, [pc, #136]	; (8001204 <init_pwm+0xd4>)
 800117c:	6a52      	ldr	r2, [r2, #36]	; 0x24
 800117e:	2180      	movs	r1, #128	; 0x80
 8001180:	0189      	lsls	r1, r1, #6
 8001182:	430a      	orrs	r2, r1
 8001184:	625a      	str	r2, [r3, #36]	; 0x24

	TIM2->ARR=3999;
 8001186:	2380      	movs	r3, #128	; 0x80
 8001188:	05db      	lsls	r3, r3, #23
 800118a:	4a1f      	ldr	r2, [pc, #124]	; (8001208 <init_pwm+0xd8>)
 800118c:	62da      	str	r2, [r3, #44]	; 0x2c
	TIM2->CCMR2 |= (TIM_CCMR2_OC3M_2|TIM_CCMR2_OC3M_1);
 800118e:	2380      	movs	r3, #128	; 0x80
 8001190:	05db      	lsls	r3, r3, #23
 8001192:	2280      	movs	r2, #128	; 0x80
 8001194:	05d2      	lsls	r2, r2, #23
 8001196:	69d2      	ldr	r2, [r2, #28]
 8001198:	2160      	movs	r1, #96	; 0x60
 800119a:	430a      	orrs	r2, r1
 800119c:	61da      	str	r2, [r3, #28]
	TIM2->CCMR2 |= (TIM_CCMR2_OC4M_2|TIM_CCMR2_OC4M_1);
 800119e:	2380      	movs	r3, #128	; 0x80
 80011a0:	05db      	lsls	r3, r3, #23
 80011a2:	2280      	movs	r2, #128	; 0x80
 80011a4:	05d2      	lsls	r2, r2, #23
 80011a6:	69d2      	ldr	r2, [r2, #28]
 80011a8:	21c0      	movs	r1, #192	; 0xc0
 80011aa:	01c9      	lsls	r1, r1, #7
 80011ac:	430a      	orrs	r2, r1
 80011ae:	61da      	str	r2, [r3, #28]
	TIM2->CCR3 = 50 * 40;
 80011b0:	2380      	movs	r3, #128	; 0x80
 80011b2:	05db      	lsls	r3, r3, #23
 80011b4:	22fa      	movs	r2, #250	; 0xfa
 80011b6:	00d2      	lsls	r2, r2, #3
 80011b8:	63da      	str	r2, [r3, #60]	; 0x3c
	TIM2->CCR4 = 50 * 40;
 80011ba:	2380      	movs	r3, #128	; 0x80
 80011bc:	05db      	lsls	r3, r3, #23
 80011be:	22fa      	movs	r2, #250	; 0xfa
 80011c0:	00d2      	lsls	r2, r2, #3
 80011c2:	641a      	str	r2, [r3, #64]	; 0x40

	TIM2->CCER |= TIM_CCER_CC3E;
 80011c4:	2380      	movs	r3, #128	; 0x80
 80011c6:	05db      	lsls	r3, r3, #23
 80011c8:	2280      	movs	r2, #128	; 0x80
 80011ca:	05d2      	lsls	r2, r2, #23
 80011cc:	6a12      	ldr	r2, [r2, #32]
 80011ce:	2180      	movs	r1, #128	; 0x80
 80011d0:	0049      	lsls	r1, r1, #1
 80011d2:	430a      	orrs	r2, r1
 80011d4:	621a      	str	r2, [r3, #32]
	TIM2->CCER |= TIM_CCER_CC4E;
 80011d6:	2380      	movs	r3, #128	; 0x80
 80011d8:	05db      	lsls	r3, r3, #23
 80011da:	2280      	movs	r2, #128	; 0x80
 80011dc:	05d2      	lsls	r2, r2, #23
 80011de:	6a12      	ldr	r2, [r2, #32]
 80011e0:	2180      	movs	r1, #128	; 0x80
 80011e2:	0149      	lsls	r1, r1, #5
 80011e4:	430a      	orrs	r2, r1
 80011e6:	621a      	str	r2, [r3, #32]

	TIM2->CR1 |= TIM_CR1_CEN;
 80011e8:	2380      	movs	r3, #128	; 0x80
 80011ea:	05db      	lsls	r3, r3, #23
 80011ec:	2280      	movs	r2, #128	; 0x80
 80011ee:	05d2      	lsls	r2, r2, #23
 80011f0:	6812      	ldr	r2, [r2, #0]
 80011f2:	2101      	movs	r1, #1
 80011f4:	430a      	orrs	r2, r1
 80011f6:	601a      	str	r2, [r3, #0]
}
 80011f8:	46c0      	nop			; (mov r8, r8)
 80011fa:	46bd      	mov	sp, r7
 80011fc:	bd80      	pop	{r7, pc}
 80011fe:	46c0      	nop			; (mov r8, r8)
 8001200:	40021000 	.word	0x40021000
 8001204:	48000400 	.word	0x48000400
 8001208:	00000f9f 	.word	0x00000f9f

0800120c <init_EXTI>:

void init_EXTI()
{
 800120c:	b580      	push	{r7, lr}
 800120e:	af00      	add	r7, sp, #0
	RCC->APB2ENR |= RCC_APB2ENR_SYSCFGCOMPEN;	// ENABLE EXTI BUS CLK
 8001210:	4b0d      	ldr	r3, [pc, #52]	; (8001248 <init_EXTI+0x3c>)
 8001212:	4a0d      	ldr	r2, [pc, #52]	; (8001248 <init_EXTI+0x3c>)
 8001214:	6992      	ldr	r2, [r2, #24]
 8001216:	2101      	movs	r1, #1
 8001218:	430a      	orrs	r2, r1
 800121a:	619a      	str	r2, [r3, #24]
	SYSCFG->EXTICR[0] |= SYSCFG_EXTICR1_EXTI2_PA;	// Map interruption to PA2
 800121c:	4b0b      	ldr	r3, [pc, #44]	; (800124c <init_EXTI+0x40>)
 800121e:	4a0b      	ldr	r2, [pc, #44]	; (800124c <init_EXTI+0x40>)
 8001220:	6892      	ldr	r2, [r2, #8]
 8001222:	609a      	str	r2, [r3, #8]
	EXTI->IMR |= EXTI_IMR_MR2;	//
 8001224:	4b0a      	ldr	r3, [pc, #40]	; (8001250 <init_EXTI+0x44>)
 8001226:	4a0a      	ldr	r2, [pc, #40]	; (8001250 <init_EXTI+0x44>)
 8001228:	6812      	ldr	r2, [r2, #0]
 800122a:	2104      	movs	r1, #4
 800122c:	430a      	orrs	r2, r1
 800122e:	601a      	str	r2, [r3, #0]
	EXTI->FTSR |= EXTI_FTSR_TR2;
 8001230:	4b07      	ldr	r3, [pc, #28]	; (8001250 <init_EXTI+0x44>)
 8001232:	4a07      	ldr	r2, [pc, #28]	; (8001250 <init_EXTI+0x44>)
 8001234:	68d2      	ldr	r2, [r2, #12]
 8001236:	2104      	movs	r1, #4
 8001238:	430a      	orrs	r2, r1
 800123a:	60da      	str	r2, [r3, #12]
	NVIC_EnableIRQ(EXTI2_3_IRQn);
 800123c:	2006      	movs	r0, #6
 800123e:	f7ff fead 	bl	8000f9c <NVIC_EnableIRQ>
}
 8001242:	46c0      	nop			; (mov r8, r8)
 8001244:	46bd      	mov	sp, r7
 8001246:	bd80      	pop	{r7, pc}
 8001248:	40021000 	.word	0x40021000
 800124c:	40010000 	.word	0x40010000
 8001250:	40010400 	.word	0x40010400

08001254 <EXTI2_3_IRQHandler>:

void EXTI2_3_IRQHandler(void)
{
 8001254:	b580      	push	{r7, lr}
 8001256:	af00      	add	r7, sp, #0
	EXTI->PR |= EXTI_PR_PR2; // EXIT INTERRUPT
 8001258:	4b04      	ldr	r3, [pc, #16]	; (800126c <EXTI2_3_IRQHandler+0x18>)
 800125a:	4a04      	ldr	r2, [pc, #16]	; (800126c <EXTI2_3_IRQHandler+0x18>)
 800125c:	6952      	ldr	r2, [r2, #20]
 800125e:	2104      	movs	r1, #4
 8001260:	430a      	orrs	r2, r1
 8001262:	615a      	str	r2, [r3, #20]
	asm("nop");
 8001264:	46c0      	nop			; (mov r8, r8)
}
 8001266:	46c0      	nop			; (mov r8, r8)
 8001268:	46bd      	mov	sp, r7
 800126a:	bd80      	pop	{r7, pc}
 800126c:	40010400 	.word	0x40010400

08001270 <init_buttons>:

void init_buttons()
{
 8001270:	b580      	push	{r7, lr}
 8001272:	af00      	add	r7, sp, #0
	// Init buttons
	RCC->AHBENR |= RCC_AHBENR_GPIOAEN;
 8001274:	4b14      	ldr	r3, [pc, #80]	; (80012c8 <init_buttons+0x58>)
 8001276:	4a14      	ldr	r2, [pc, #80]	; (80012c8 <init_buttons+0x58>)
 8001278:	6952      	ldr	r2, [r2, #20]
 800127a:	2180      	movs	r1, #128	; 0x80
 800127c:	0289      	lsls	r1, r1, #10
 800127e:	430a      	orrs	r2, r1
 8001280:	615a      	str	r2, [r3, #20]

	// Init Switch 0
	GPIOA->MODER &= ~GPIO_MODER_MODER0;
 8001282:	2390      	movs	r3, #144	; 0x90
 8001284:	05db      	lsls	r3, r3, #23
 8001286:	2290      	movs	r2, #144	; 0x90
 8001288:	05d2      	lsls	r2, r2, #23
 800128a:	6812      	ldr	r2, [r2, #0]
 800128c:	2103      	movs	r1, #3
 800128e:	438a      	bics	r2, r1
 8001290:	601a      	str	r2, [r3, #0]
	GPIOA->PUPDR |= GPIO_PUPDR_PUPDR0_0;
 8001292:	2390      	movs	r3, #144	; 0x90
 8001294:	05db      	lsls	r3, r3, #23
 8001296:	2290      	movs	r2, #144	; 0x90
 8001298:	05d2      	lsls	r2, r2, #23
 800129a:	68d2      	ldr	r2, [r2, #12]
 800129c:	2101      	movs	r1, #1
 800129e:	430a      	orrs	r2, r1
 80012a0:	60da      	str	r2, [r3, #12]

	// Init Switch 1
	GPIOA->MODER &= ~GPIO_MODER_MODER1;
 80012a2:	2390      	movs	r3, #144	; 0x90
 80012a4:	05db      	lsls	r3, r3, #23
 80012a6:	2290      	movs	r2, #144	; 0x90
 80012a8:	05d2      	lsls	r2, r2, #23
 80012aa:	6812      	ldr	r2, [r2, #0]
 80012ac:	210c      	movs	r1, #12
 80012ae:	438a      	bics	r2, r1
 80012b0:	601a      	str	r2, [r3, #0]
	GPIOA->PUPDR |= GPIO_PUPDR_PUPDR1_0;
 80012b2:	2390      	movs	r3, #144	; 0x90
 80012b4:	05db      	lsls	r3, r3, #23
 80012b6:	2290      	movs	r2, #144	; 0x90
 80012b8:	05d2      	lsls	r2, r2, #23
 80012ba:	68d2      	ldr	r2, [r2, #12]
 80012bc:	2104      	movs	r1, #4
 80012be:	430a      	orrs	r2, r1
 80012c0:	60da      	str	r2, [r3, #12]
}
 80012c2:	46c0      	nop			; (mov r8, r8)
 80012c4:	46bd      	mov	sp, r7
 80012c6:	bd80      	pop	{r7, pc}
 80012c8:	40021000 	.word	0x40021000

080012cc <init_timer6>:

void init_timer6()
{
 80012cc:	b580      	push	{r7, lr}
 80012ce:	af00      	add	r7, sp, #0
    RCC->APB1ENR |= RCC_APB1ENR_TIM6EN; // Enable clock to timer
 80012d0:	4b0e      	ldr	r3, [pc, #56]	; (800130c <init_timer6+0x40>)
 80012d2:	4a0e      	ldr	r2, [pc, #56]	; (800130c <init_timer6+0x40>)
 80012d4:	69d2      	ldr	r2, [r2, #28]
 80012d6:	2110      	movs	r1, #16
 80012d8:	430a      	orrs	r2, r1
 80012da:	61da      	str	r2, [r3, #28]

    TIM6->PSC = 99;   // 99
 80012dc:	4b0c      	ldr	r3, [pc, #48]	; (8001310 <init_timer6+0x44>)
 80012de:	2263      	movs	r2, #99	; 0x63
 80012e0:	629a      	str	r2, [r3, #40]	; 0x28
    TIM6->ARR = 240000;   // 240000
 80012e2:	4b0b      	ldr	r3, [pc, #44]	; (8001310 <init_timer6+0x44>)
 80012e4:	4a0b      	ldr	r2, [pc, #44]	; (8001314 <init_timer6+0x48>)
 80012e6:	62da      	str	r2, [r3, #44]	; 0x2c

    TIM6->DIER |= TIM_DIER_UIE; // Enable interrupts on update events
 80012e8:	4b09      	ldr	r3, [pc, #36]	; (8001310 <init_timer6+0x44>)
 80012ea:	4a09      	ldr	r2, [pc, #36]	; (8001310 <init_timer6+0x44>)
 80012ec:	68d2      	ldr	r2, [r2, #12]
 80012ee:	2101      	movs	r1, #1
 80012f0:	430a      	orrs	r2, r1
 80012f2:	60da      	str	r2, [r3, #12]
    TIM6->CR1 |= TIM_CR1_CEN;
 80012f4:	4b06      	ldr	r3, [pc, #24]	; (8001310 <init_timer6+0x44>)
 80012f6:	4a06      	ldr	r2, [pc, #24]	; (8001310 <init_timer6+0x44>)
 80012f8:	6812      	ldr	r2, [r2, #0]
 80012fa:	2101      	movs	r1, #1
 80012fc:	430a      	orrs	r2, r1
 80012fe:	601a      	str	r2, [r3, #0]

    NVIC_EnableIRQ(TIM6_IRQn);
 8001300:	2011      	movs	r0, #17
 8001302:	f7ff fe4b 	bl	8000f9c <NVIC_EnableIRQ>
}
 8001306:	46c0      	nop			; (mov r8, r8)
 8001308:	46bd      	mov	sp, r7
 800130a:	bd80      	pop	{r7, pc}
 800130c:	40021000 	.word	0x40021000
 8001310:	40001000 	.word	0x40001000
 8001314:	0003a980 	.word	0x0003a980

08001318 <TIM6_DAC_IRQHandler>:

void TIM6_IRQHandler()
{
 8001318:	b580      	push	{r7, lr}
 800131a:	af00      	add	r7, sp, #0
    TIM6->SR &= ~TIM_SR_UIF;
 800131c:	4b1a      	ldr	r3, [pc, #104]	; (8001388 <TIM6_DAC_IRQHandler+0x70>)
 800131e:	4a1a      	ldr	r2, [pc, #104]	; (8001388 <TIM6_DAC_IRQHandler+0x70>)
 8001320:	6912      	ldr	r2, [r2, #16]
 8001322:	2101      	movs	r1, #1
 8001324:	438a      	bics	r2, r1
 8001326:	611a      	str	r2, [r3, #16]

    // Check if SW0 is held down then switch settings
    if ((GPIOA->IDR & GPIO_IDR_0) == 0)
 8001328:	2390      	movs	r3, #144	; 0x90
 800132a:	05db      	lsls	r3, r3, #23
 800132c:	691b      	ldr	r3, [r3, #16]
 800132e:	2201      	movs	r2, #1
 8001330:	4013      	ands	r3, r2
 8001332:	d107      	bne.n	8001344 <TIM6_DAC_IRQHandler+0x2c>
    {
        TIM6->PSC = 300;   // 99
 8001334:	4b14      	ldr	r3, [pc, #80]	; (8001388 <TIM6_DAC_IRQHandler+0x70>)
 8001336:	2296      	movs	r2, #150	; 0x96
 8001338:	0052      	lsls	r2, r2, #1
 800133a:	629a      	str	r2, [r3, #40]	; 0x28
        TIM6->ARR = 240000;   // 240000
 800133c:	4b12      	ldr	r3, [pc, #72]	; (8001388 <TIM6_DAC_IRQHandler+0x70>)
 800133e:	4a13      	ldr	r2, [pc, #76]	; (800138c <TIM6_DAC_IRQHandler+0x74>)
 8001340:	62da      	str	r2, [r3, #44]	; 0x2c
 8001342:	e005      	b.n	8001350 <TIM6_DAC_IRQHandler+0x38>
    } else {
        TIM6->PSC = 99;   // 99
 8001344:	4b10      	ldr	r3, [pc, #64]	; (8001388 <TIM6_DAC_IRQHandler+0x70>)
 8001346:	2263      	movs	r2, #99	; 0x63
 8001348:	629a      	str	r2, [r3, #40]	; 0x28
        TIM6->ARR = 240000;   // 240000
 800134a:	4b0f      	ldr	r3, [pc, #60]	; (8001388 <TIM6_DAC_IRQHandler+0x70>)
 800134c:	4a0f      	ldr	r2, [pc, #60]	; (800138c <TIM6_DAC_IRQHandler+0x74>)
 800134e:	62da      	str	r2, [r3, #44]	; 0x2c
    }

    if ((GPIOA->IDR & GPIO_IDR_1) == 0)
 8001350:	2390      	movs	r3, #144	; 0x90
 8001352:	05db      	lsls	r3, r3, #23
 8001354:	691b      	ldr	r3, [r3, #16]
 8001356:	2202      	movs	r2, #2
 8001358:	4013      	ands	r3, r2
 800135a:	d110      	bne.n	800137e <TIM6_DAC_IRQHandler+0x66>
    {
    	if (flag)
 800135c:	4b0c      	ldr	r3, [pc, #48]	; (8001390 <TIM6_DAC_IRQHandler+0x78>)
 800135e:	781b      	ldrb	r3, [r3, #0]
 8001360:	2b00      	cmp	r3, #0
 8001362:	d006      	beq.n	8001372 <TIM6_DAC_IRQHandler+0x5a>
    	{
    		value = 170;
 8001364:	4b0b      	ldr	r3, [pc, #44]	; (8001394 <TIM6_DAC_IRQHandler+0x7c>)
 8001366:	22aa      	movs	r2, #170	; 0xaa
 8001368:	701a      	strb	r2, [r3, #0]
    		flag = 0;
 800136a:	4b09      	ldr	r3, [pc, #36]	; (8001390 <TIM6_DAC_IRQHandler+0x78>)
 800136c:	2200      	movs	r2, #0
 800136e:	701a      	strb	r2, [r3, #0]
 8001370:	e005      	b.n	800137e <TIM6_DAC_IRQHandler+0x66>
    	} else {
    		value = 85;
 8001372:	4b08      	ldr	r3, [pc, #32]	; (8001394 <TIM6_DAC_IRQHandler+0x7c>)
 8001374:	2255      	movs	r2, #85	; 0x55
 8001376:	701a      	strb	r2, [r3, #0]
    		flag = 1;
 8001378:	4b05      	ldr	r3, [pc, #20]	; (8001390 <TIM6_DAC_IRQHandler+0x78>)
 800137a:	2201      	movs	r2, #1
 800137c:	701a      	strb	r2, [r3, #0]
    	}
    }

    CountUp();
 800137e:	f000 f823 	bl	80013c8 <CountUp>
}
 8001382:	46c0      	nop			; (mov r8, r8)
 8001384:	46bd      	mov	sp, r7
 8001386:	bd80      	pop	{r7, pc}
 8001388:	40001000 	.word	0x40001000
 800138c:	0003a980 	.word	0x0003a980
 8001390:	2000001d 	.word	0x2000001d
 8001394:	2000001c 	.word	0x2000001c

08001398 <init_LED>:

void init_LED()
{
 8001398:	b580      	push	{r7, lr}
 800139a:	af00      	add	r7, sp, #0
    //Initialize the LED's to be used to output data

    RCC  ->AHBENR |= 1<<18;             // Connecting GPIO Port B to the clock through the bus using bit 18
 800139c:	4b07      	ldr	r3, [pc, #28]	; (80013bc <init_LED+0x24>)
 800139e:	4a07      	ldr	r2, [pc, #28]	; (80013bc <init_LED+0x24>)
 80013a0:	6952      	ldr	r2, [r2, #20]
 80013a2:	2180      	movs	r1, #128	; 0x80
 80013a4:	02c9      	lsls	r1, r1, #11
 80013a6:	430a      	orrs	r2, r1
 80013a8:	615a      	str	r2, [r3, #20]
    GPIOB->MODER  |= 0x00005555;        // Setting modes of the LED's to outputs
 80013aa:	4b05      	ldr	r3, [pc, #20]	; (80013c0 <init_LED+0x28>)
 80013ac:	4a04      	ldr	r2, [pc, #16]	; (80013c0 <init_LED+0x28>)
 80013ae:	6812      	ldr	r2, [r2, #0]
 80013b0:	4904      	ldr	r1, [pc, #16]	; (80013c4 <init_LED+0x2c>)
 80013b2:	430a      	orrs	r2, r1
 80013b4:	601a      	str	r2, [r3, #0]
}
 80013b6:	46c0      	nop			; (mov r8, r8)
 80013b8:	46bd      	mov	sp, r7
 80013ba:	bd80      	pop	{r7, pc}
 80013bc:	40021000 	.word	0x40021000
 80013c0:	48000400 	.word	0x48000400
 80013c4:	00005555 	.word	0x00005555

080013c8 <CountUp>:

void CountUp()
{
 80013c8:	b580      	push	{r7, lr}
 80013ca:	af00      	add	r7, sp, #0
    GPIOB->ODR = value;                 // Display the current value on the LED's
 80013cc:	4b0a      	ldr	r3, [pc, #40]	; (80013f8 <CountUp+0x30>)
 80013ce:	4a0b      	ldr	r2, [pc, #44]	; (80013fc <CountUp+0x34>)
 80013d0:	7812      	ldrb	r2, [r2, #0]
 80013d2:	615a      	str	r2, [r3, #20]
    if(value == 255)                    // Check whether the value is at 255 and if it is reset it to 0
 80013d4:	4b09      	ldr	r3, [pc, #36]	; (80013fc <CountUp+0x34>)
 80013d6:	781b      	ldrb	r3, [r3, #0]
 80013d8:	2bff      	cmp	r3, #255	; 0xff
 80013da:	d103      	bne.n	80013e4 <CountUp+0x1c>
    {
        value = 0;
 80013dc:	4b07      	ldr	r3, [pc, #28]	; (80013fc <CountUp+0x34>)
 80013de:	2200      	movs	r2, #0
 80013e0:	701a      	strb	r2, [r3, #0]
    }
    else                                // If value is not 255 then add 1 to the value
    {
        value += 1;
    }
}
 80013e2:	e005      	b.n	80013f0 <CountUp+0x28>
        value += 1;
 80013e4:	4b05      	ldr	r3, [pc, #20]	; (80013fc <CountUp+0x34>)
 80013e6:	781b      	ldrb	r3, [r3, #0]
 80013e8:	3301      	adds	r3, #1
 80013ea:	b2da      	uxtb	r2, r3
 80013ec:	4b03      	ldr	r3, [pc, #12]	; (80013fc <CountUp+0x34>)
 80013ee:	701a      	strb	r2, [r3, #0]
}
 80013f0:	46c0      	nop			; (mov r8, r8)
 80013f2:	46bd      	mov	sp, r7
 80013f4:	bd80      	pop	{r7, pc}
 80013f6:	46c0      	nop			; (mov r8, r8)
 80013f8:	48000400 	.word	0x48000400
 80013fc:	2000001c 	.word	0x2000001c

08001400 <Reset_Handler>:

  .section .text.Reset_Handler
  .weak Reset_Handler
  .type Reset_Handler, %function
Reset_Handler:
  ldr   r0, =_estack
 8001400:	480d      	ldr	r0, [pc, #52]	; (8001438 <LoopForever+0x2>)
  mov   sp, r0          /* set stack pointer */
 8001402:	4685      	mov	sp, r0

/* Copy the data segment initializers from flash to SRAM */
  movs r1, #0
 8001404:	2100      	movs	r1, #0
  b LoopCopyDataInit
 8001406:	e003      	b.n	8001410 <LoopCopyDataInit>

08001408 <CopyDataInit>:

CopyDataInit:
  ldr r3, =_sidata
 8001408:	4b0c      	ldr	r3, [pc, #48]	; (800143c <LoopForever+0x6>)
  ldr r3, [r3, r1]
 800140a:	585b      	ldr	r3, [r3, r1]
  str r3, [r0, r1]
 800140c:	5043      	str	r3, [r0, r1]
  adds r1, r1, #4
 800140e:	3104      	adds	r1, #4

08001410 <LoopCopyDataInit>:

LoopCopyDataInit:
  ldr r0, =_sdata
 8001410:	480b      	ldr	r0, [pc, #44]	; (8001440 <LoopForever+0xa>)
  ldr r3, =_edata
 8001412:	4b0c      	ldr	r3, [pc, #48]	; (8001444 <LoopForever+0xe>)
  adds r2, r0, r1
 8001414:	1842      	adds	r2, r0, r1
  cmp r2, r3
 8001416:	429a      	cmp	r2, r3
  bcc CopyDataInit
 8001418:	d3f6      	bcc.n	8001408 <CopyDataInit>
  ldr r2, =_sbss
 800141a:	4a0b      	ldr	r2, [pc, #44]	; (8001448 <LoopForever+0x12>)
  b LoopFillZerobss
 800141c:	e002      	b.n	8001424 <LoopFillZerobss>

0800141e <FillZerobss>:
/* Zero fill the bss segment. */
FillZerobss:
  movs r3, #0
 800141e:	2300      	movs	r3, #0
  str  r3, [r2]
 8001420:	6013      	str	r3, [r2, #0]
  adds r2, r2, #4
 8001422:	3204      	adds	r2, #4

08001424 <LoopFillZerobss>:


LoopFillZerobss:
  ldr r3, = _ebss
 8001424:	4b09      	ldr	r3, [pc, #36]	; (800144c <LoopForever+0x16>)
  cmp r2, r3
 8001426:	429a      	cmp	r2, r3
  bcc FillZerobss
 8001428:	d3f9      	bcc.n	800141e <FillZerobss>

/* Call the clock system intitialization function.*/
  bl  SystemInit
 800142a:	f000 f813 	bl	8001454 <SystemInit>
/* Call static constructors */
  bl __libc_init_array
 800142e:	f000 f855 	bl	80014dc <__libc_init_array>
/* Call the application's entry point.*/
  bl main
 8001432:	f7ff fdc9 	bl	8000fc8 <main>

08001436 <LoopForever>:

LoopForever:
    b LoopForever
 8001436:	e7fe      	b.n	8001436 <LoopForever>
  ldr   r0, =_estack
 8001438:	20002000 	.word	0x20002000
  ldr r3, =_sidata
 800143c:	080015c4 	.word	0x080015c4
  ldr r0, =_sdata
 8001440:	20000000 	.word	0x20000000
  ldr r3, =_edata
 8001444:	20000000 	.word	0x20000000
  ldr r2, =_sbss
 8001448:	20000000 	.word	0x20000000
  ldr r3, = _ebss
 800144c:	20000028 	.word	0x20000028

08001450 <ADC1_COMP_IRQHandler>:
 * @retval : None
*/
    .section .text.Default_Handler,"ax",%progbits
Default_Handler:
Infinite_Loop:
  b Infinite_Loop
 8001450:	e7fe      	b.n	8001450 <ADC1_COMP_IRQHandler>
	...

08001454 <SystemInit>:
  *         Initialize the default HSI clock source, vector table location and the PLL configuration is reset.
  * @param  None
  * @retval None
  */
void SystemInit(void)
{
 8001454:	b580      	push	{r7, lr}
 8001456:	af00      	add	r7, sp, #0
  /* Reset the RCC clock configuration to the default reset state ------------*/
  /* Set HSION bit */
  RCC->CR |= (uint32_t)0x00000001U;
 8001458:	4b1a      	ldr	r3, [pc, #104]	; (80014c4 <SystemInit+0x70>)
 800145a:	4a1a      	ldr	r2, [pc, #104]	; (80014c4 <SystemInit+0x70>)
 800145c:	6812      	ldr	r2, [r2, #0]
 800145e:	2101      	movs	r1, #1
 8001460:	430a      	orrs	r2, r1
 8001462:	601a      	str	r2, [r3, #0]

#if defined (STM32F051x8) || defined (STM32F058x8)
  /* Reset SW[1:0], HPRE[3:0], PPRE[2:0], ADCPRE and MCOSEL[2:0] bits */
  RCC->CFGR &= (uint32_t)0xF8FFB80CU;
 8001464:	4b17      	ldr	r3, [pc, #92]	; (80014c4 <SystemInit+0x70>)
 8001466:	4a17      	ldr	r2, [pc, #92]	; (80014c4 <SystemInit+0x70>)
 8001468:	6852      	ldr	r2, [r2, #4]
 800146a:	4917      	ldr	r1, [pc, #92]	; (80014c8 <SystemInit+0x74>)
 800146c:	400a      	ands	r2, r1
 800146e:	605a      	str	r2, [r3, #4]
  /* Reset SW[1:0], HPRE[3:0], PPRE[2:0], ADCPRE, MCOSEL[2:0], MCOPRE[2:0] and PLLNODIV bits */
  RCC->CFGR &= (uint32_t)0x08FFB80CU;
#endif /* STM32F051x8 or STM32F058x8 */
  
  /* Reset HSEON, CSSON and PLLON bits */
  RCC->CR &= (uint32_t)0xFEF6FFFFU;
 8001470:	4b14      	ldr	r3, [pc, #80]	; (80014c4 <SystemInit+0x70>)
 8001472:	4a14      	ldr	r2, [pc, #80]	; (80014c4 <SystemInit+0x70>)
 8001474:	6812      	ldr	r2, [r2, #0]
 8001476:	4915      	ldr	r1, [pc, #84]	; (80014cc <SystemInit+0x78>)
 8001478:	400a      	ands	r2, r1
 800147a:	601a      	str	r2, [r3, #0]

  /* Reset HSEBYP bit */
  RCC->CR &= (uint32_t)0xFFFBFFFFU;
 800147c:	4b11      	ldr	r3, [pc, #68]	; (80014c4 <SystemInit+0x70>)
 800147e:	4a11      	ldr	r2, [pc, #68]	; (80014c4 <SystemInit+0x70>)
 8001480:	6812      	ldr	r2, [r2, #0]
 8001482:	4913      	ldr	r1, [pc, #76]	; (80014d0 <SystemInit+0x7c>)
 8001484:	400a      	ands	r2, r1
 8001486:	601a      	str	r2, [r3, #0]

  /* Reset PLLSRC, PLLXTPRE and PLLMUL[3:0] bits */
  RCC->CFGR &= (uint32_t)0xFFC0FFFFU;
 8001488:	4b0e      	ldr	r3, [pc, #56]	; (80014c4 <SystemInit+0x70>)
 800148a:	4a0e      	ldr	r2, [pc, #56]	; (80014c4 <SystemInit+0x70>)
 800148c:	6852      	ldr	r2, [r2, #4]
 800148e:	4911      	ldr	r1, [pc, #68]	; (80014d4 <SystemInit+0x80>)
 8001490:	400a      	ands	r2, r1
 8001492:	605a      	str	r2, [r3, #4]

  /* Reset PREDIV[3:0] bits */
  RCC->CFGR2 &= (uint32_t)0xFFFFFFF0U;
 8001494:	4b0b      	ldr	r3, [pc, #44]	; (80014c4 <SystemInit+0x70>)
 8001496:	4a0b      	ldr	r2, [pc, #44]	; (80014c4 <SystemInit+0x70>)
 8001498:	6ad2      	ldr	r2, [r2, #44]	; 0x2c
 800149a:	210f      	movs	r1, #15
 800149c:	438a      	bics	r2, r1
 800149e:	62da      	str	r2, [r3, #44]	; 0x2c
#elif defined (STM32F030x6) || defined (STM32F030x8) || defined (STM32F031x6) || defined (STM32F038xx) || defined (STM32F030xC)
  /* Reset USART1SW[1:0], I2C1SW and ADCSW bits */
  RCC->CFGR3 &= (uint32_t)0xFFFFFEECU;
#elif defined (STM32F051x8) || defined (STM32F058xx)
  /* Reset USART1SW[1:0], I2C1SW, CECSW and ADCSW bits */
  RCC->CFGR3 &= (uint32_t)0xFFFFFEACU;
 80014a0:	4b08      	ldr	r3, [pc, #32]	; (80014c4 <SystemInit+0x70>)
 80014a2:	4a08      	ldr	r2, [pc, #32]	; (80014c4 <SystemInit+0x70>)
 80014a4:	6b12      	ldr	r2, [r2, #48]	; 0x30
 80014a6:	490c      	ldr	r1, [pc, #48]	; (80014d8 <SystemInit+0x84>)
 80014a8:	400a      	ands	r2, r1
 80014aa:	631a      	str	r2, [r3, #48]	; 0x30
#else
 #warning "No target selected"
#endif

  /* Reset HSI14 bit */
  RCC->CR2 &= (uint32_t)0xFFFFFFFEU;
 80014ac:	4b05      	ldr	r3, [pc, #20]	; (80014c4 <SystemInit+0x70>)
 80014ae:	4a05      	ldr	r2, [pc, #20]	; (80014c4 <SystemInit+0x70>)
 80014b0:	6b52      	ldr	r2, [r2, #52]	; 0x34
 80014b2:	2101      	movs	r1, #1
 80014b4:	438a      	bics	r2, r1
 80014b6:	635a      	str	r2, [r3, #52]	; 0x34

  /* Disable all interrupts */
  RCC->CIR = 0x00000000U;
 80014b8:	4b02      	ldr	r3, [pc, #8]	; (80014c4 <SystemInit+0x70>)
 80014ba:	2200      	movs	r2, #0
 80014bc:	609a      	str	r2, [r3, #8]

}
 80014be:	46c0      	nop			; (mov r8, r8)
 80014c0:	46bd      	mov	sp, r7
 80014c2:	bd80      	pop	{r7, pc}
 80014c4:	40021000 	.word	0x40021000
 80014c8:	f8ffb80c 	.word	0xf8ffb80c
 80014cc:	fef6ffff 	.word	0xfef6ffff
 80014d0:	fffbffff 	.word	0xfffbffff
 80014d4:	ffc0ffff 	.word	0xffc0ffff
 80014d8:	fffffeac 	.word	0xfffffeac

080014dc <__libc_init_array>:
 80014dc:	b570      	push	{r4, r5, r6, lr}
 80014de:	2600      	movs	r6, #0
 80014e0:	4d0c      	ldr	r5, [pc, #48]	; (8001514 <__libc_init_array+0x38>)
 80014e2:	4c0d      	ldr	r4, [pc, #52]	; (8001518 <__libc_init_array+0x3c>)
 80014e4:	1b64      	subs	r4, r4, r5
 80014e6:	10a4      	asrs	r4, r4, #2
 80014e8:	42a6      	cmp	r6, r4
 80014ea:	d109      	bne.n	8001500 <__libc_init_array+0x24>
 80014ec:	2600      	movs	r6, #0
 80014ee:	f000 f819 	bl	8001524 <_init>
 80014f2:	4d0a      	ldr	r5, [pc, #40]	; (800151c <__libc_init_array+0x40>)
 80014f4:	4c0a      	ldr	r4, [pc, #40]	; (8001520 <__libc_init_array+0x44>)
 80014f6:	1b64      	subs	r4, r4, r5
 80014f8:	10a4      	asrs	r4, r4, #2
 80014fa:	42a6      	cmp	r6, r4
 80014fc:	d105      	bne.n	800150a <__libc_init_array+0x2e>
 80014fe:	bd70      	pop	{r4, r5, r6, pc}
 8001500:	00b3      	lsls	r3, r6, #2
 8001502:	58eb      	ldr	r3, [r5, r3]
 8001504:	4798      	blx	r3
 8001506:	3601      	adds	r6, #1
 8001508:	e7ee      	b.n	80014e8 <__libc_init_array+0xc>
 800150a:	00b3      	lsls	r3, r6, #2
 800150c:	58eb      	ldr	r3, [r5, r3]
 800150e:	4798      	blx	r3
 8001510:	3601      	adds	r6, #1
 8001512:	e7f2      	b.n	80014fa <__libc_init_array+0x1e>
 8001514:	080015bc 	.word	0x080015bc
 8001518:	080015bc 	.word	0x080015bc
 800151c:	080015bc 	.word	0x080015bc
 8001520:	080015c0 	.word	0x080015c0

08001524 <_init>:
 8001524:	b5f8      	push	{r3, r4, r5, r6, r7, lr}
 8001526:	46c0      	nop			; (mov r8, r8)
 8001528:	bcf8      	pop	{r3, r4, r5, r6, r7}
 800152a:	bc08      	pop	{r3}
 800152c:	469e      	mov	lr, r3
 800152e:	4770      	bx	lr

08001530 <_fini>:
 8001530:	b5f8      	push	{r3, r4, r5, r6, r7, lr}
 8001532:	46c0      	nop			; (mov r8, r8)
 8001534:	bcf8      	pop	{r3, r4, r5, r6, r7}
 8001536:	bc08      	pop	{r3}
 8001538:	469e      	mov	lr, r3
 800153a:	4770      	bx	lr
